
D:/cprogram/CH32V307_base_project_clion/cmake-build-debug/CH32V305_DAP.elf:     file format elf32-littleriscv
D:/cprogram/CH32V307_base_project_clion/cmake-build-debug/CH32V305_DAP.elf
architecture: riscv:rv32, flags 0x00000112:
EXEC_P, HAS_SYMS, D_PAGED
start address 0x00000000

Program Header:
    LOAD off    0x00001000 vaddr 0x00000000 paddr 0x00000000 align 2**12
         filesz 0x00002b88 memsz 0x00002b88 flags r-x
    LOAD off    0x00004000 vaddr 0x20000000 paddr 0x00002b88 align 2**12
         filesz 0x00000090 memsz 0x000000b4 flags rw-
    LOAD off    0x00004800 vaddr 0x2001f800 paddr 0x2001f800 align 2**12
         filesz 0x00000000 memsz 0x00000800 flags rw-

Sections:
Idx Name          Size      VMA       LMA       File off  Algn
  0 .init         00000038  00000000  00000000  00001000  2**1
                  CONTENTS, ALLOC, LOAD, READONLY, CODE
  1 .vector       000001c8  00000038  00000038  00001038  2**1
                  CONTENTS, ALLOC, LOAD, READONLY, CODE
  2 .text         00002988  00000200  00000200  00001200  2**2
                  CONTENTS, ALLOC, LOAD, READONLY, CODE
  3 .fini         00000000  00002b88  00002b88  00004090  2**0
                  CONTENTS, ALLOC, LOAD, CODE
  4 .dalign       00000000  20000000  20000000  00004090  2**0
                  CONTENTS
  5 .dlalign      00000000  00002b88  00002b88  00004090  2**0
                  CONTENTS
  6 .data         00000090  20000000  00002b88  00004000  2**2
                  CONTENTS, ALLOC, LOAD, DATA
  7 .bss          00000024  20000090  00002c18  00004090  2**2
                  ALLOC
  8 .stack        00000800  2001f800  2001f800  00004800  2**0
                  ALLOC
  9 .debug_info   00008f62  00000000  00000000  00004090  2**0
                  CONTENTS, READONLY, DEBUGGING
 10 .debug_abbrev 000014da  00000000  00000000  0000cff2  2**0
                  CONTENTS, READONLY, DEBUGGING
 11 .debug_loc    00002163  00000000  00000000  0000e4cc  2**0
                  CONTENTS, READONLY, DEBUGGING
 12 .debug_aranges 000005d0  00000000  00000000  00010630  2**3
                  CONTENTS, READONLY, DEBUGGING
 13 .debug_ranges 00000538  00000000  00000000  00010c00  2**3
                  CONTENTS, READONLY, DEBUGGING
 14 .debug_line   00004c66  00000000  00000000  00011138  2**0
                  CONTENTS, READONLY, DEBUGGING
 15 .debug_str    0000203f  00000000  00000000  00015d9e  2**0
                  CONTENTS, READONLY, DEBUGGING
 16 .comment      00000033  00000000  00000000  00017ddd  2**0
                  CONTENTS, READONLY
 17 .debug_frame  00001da4  00000000  00000000  00017e10  2**2
                  CONTENTS, READONLY, DEBUGGING
 18 .stab         00000084  00000000  00000000  00019bb4  2**2
                  CONTENTS, READONLY, DEBUGGING
 19 .stabstr      00000117  00000000  00000000  00019c38  2**0
                  CONTENTS, READONLY, DEBUGGING
SYMBOL TABLE:
00000000 l    d  .init	00000000 .init
00000038 l    d  .vector	00000000 .vector
00000200 l    d  .text	00000000 .text
00002b88 l    d  .fini	00000000 .fini
20000000 l    d  .dalign	00000000 .dalign
00002b88 l    d  .dlalign	00000000 .dlalign
20000000 l    d  .data	00000000 .data
20000090 l    d  .bss	00000000 .bss
2001f800 l    d  .stack	00000000 .stack
00000000 l    d  .debug_info	00000000 .debug_info
00000000 l    d  .debug_abbrev	00000000 .debug_abbrev
00000000 l    d  .debug_loc	00000000 .debug_loc
00000000 l    d  .debug_aranges	00000000 .debug_aranges
00000000 l    d  .debug_ranges	00000000 .debug_ranges
00000000 l    d  .debug_line	00000000 .debug_line
00000000 l    d  .debug_str	00000000 .debug_str
00000000 l    d  .comment	00000000 .comment
00000000 l    d  .debug_frame	00000000 .debug_frame
00000000 l    d  .stab	00000000 .stab
00000000 l    d  .stabstr	00000000 .stabstr
00000000 l    df *ABS*	00000000 CMakeFiles/CH32V305_DAP.elf.dir/Startup/startup_ch32v30x_D8C.S.obj
00000038 l       .vector	00000000 _vector_base
00000000 l    df *ABS*	00000000 core_riscv.c
00000000 l    df *ABS*	00000000 debug.c
20000080 l     O .data	00000004 curbrk.5199
00000000 l    df *ABS*	00000000 ch32v30x_gpio.c
00000000 l    df *ABS*	00000000 ch32v30x_rcc.c
20000000 l     O .data	00000010 APBAHBPrescTable
20000010 l     O .data	00000010 PLL2MuxTable
20000084 l     O .data	00000004 ADCPrescTable
00000000 l    df *ABS*	00000000 ch32v30x_usart.c
00000000 l    df *ABS*	00000000 ch32v30x_it.c
00000db8 l     F .text	00000032 NVIC_ClearPendingIRQ
00000000 l    df *ABS*	00000000 main.c
00000000 l    df *ABS*	00000000 system_ch32v30x.c
00001036 l     F .text	00000016 SetSysClock
000010ca l     F .text	00000112 SetSysClockTo144
00000000 l    df *ABS*	00000000 self_check.c
000011dc l     F .text	00000032 NVIC_EnableIRQ
0000120e l     F .text	00000032 NVIC_DisableIRQ
00001240 l     F .text	00000032 NVIC_SetPendingIRQ
00000000 l    df *ABS*	00000000 printf.c
00000000 l    df *ABS*	00000000 putchar.c
00000000 l    df *ABS*	00000000 puts.c
00000000 l    df *ABS*	00000000 wbuf.c
00000000 l    df *ABS*	00000000 wsetup.c
00000000 l    df *ABS*	00000000 fflush.c
00000000 l    df *ABS*	00000000 findfp.c
000019d4 l     F .text	00000066 std
00000000 l    df *ABS*	00000000 fwalk.c
00000000 l    df *ABS*	00000000 makebuf.c
00000000 l    df *ABS*	00000000 nano-mallocr.c
00000000 l    df *ABS*	00000000 nano-mallocr.c
00000000 l    df *ABS*	00000000 nano-vfprintf.c
00001e5e l     F .text	00000028 __sfputc_r
00000000 l    df *ABS*	00000000 nano-vfprintf_i.c
00000000 l    df *ABS*	00000000 putc.c
00000000 l    df *ABS*	00000000 sbrkr.c
00000000 l    df *ABS*	00000000 stdio.c
00000000 l    df *ABS*	00000000 writer.c
00000000 l    df *ABS*	00000000 closer.c
00000000 l    df *ABS*	00000000 fstatr.c
00000000 l    df *ABS*	00000000 isattyr.c
00000000 l    df *ABS*	00000000 lseekr.c
00000000 l    df *ABS*	00000000 memchr.c
00000000 l    df *ABS*	00000000 mlock.c
00000000 l    df *ABS*	00000000 readr.c
00000000 l    df *ABS*	00000000 close.c
00000000 l    df *ABS*	00000000 fstat.c
00000000 l    df *ABS*	00000000 isatty.c
00000000 l    df *ABS*	00000000 lseek.c
00000000 l    df *ABS*	00000000 read.c
00000000 l    df *ABS*	00000000 impure.c
20000020 l     O .data	00000060 impure_data
00000000 l    df *ABS*	00000000 reent.c
00000c8e  w      .text	00000000 EXTI2_IRQHandler
00001580 g     F .text	0000002a putchar
00000cd8  w      .text	00000000 TIM8_TRG_COM_IRQHandler
00000cda  w      .text	00000000 TIM8_CC_IRQHandler
000026d0 g     F .text	00000028 _isatty_r
000015aa g     F .text	000000d4 _puts_r
000026f8 g     F .text	0000002c _lseek_r
00000d10  w      .text	00000000 UART8_IRQHandler
000002c2 g     F .text	0000001a __get_MTVEC
00001540 g     F .text	00000040 printf
20000880 g       .data	00000000 __global_pointer$
00000cb4  w      .text	00000000 TIM1_CC_IRQHandler
0000261a g     F .text	00000030 __sseek
00001a8a g     F .text	00000066 __sinit
00001688 g     F .text	000000bc __swbuf_r
00000e3a g     F .text	00000060 HardFault_Handler
00001a44 g     F .text	00000046 __sfmoreglue
0000273e g     F .text	00000002 __malloc_unlock
00000cea  w      .text	00000000 TIM6_IRQHandler
00000c7a  w      .text	00000000 SysTick_Handler
00000c80  w      .text	00000000 PVD_IRQHandler
00000ce0  w      .text	00000000 SDIO_IRQHandler
00000d12  w      .text	00000000 TIM9_BRK_IRQHandler
00000d26  w      .text	00000000 DMA2_Channel8_IRQHandler
00000dea g     F .text	0000001a NMI_Handler
00000d00  w      .text	00000000 CAN2_RX1_IRQHandler
00000c90  w      .text	00000000 EXTI3_IRQHandler
00001492 g     F .text	000000ae check_rst_src
00000d08  w      .text	00000000 USBHS_IRQHandler
00000c2c g     F .text	00000044 USART_GetFlagStatus
00000d28  w      .text	00000000 DMA2_Channel9_IRQHandler
000026a6 g     F .text	0000002a _fstat_r
00000d20  w      .text	00000000 TIM10_CC_IRQHandler
200000b0 g     O .bss	00000004 errno
20000090 g       .bss	00000000 _sbss
00000800 g       *ABS*	00000000 __stack_size
00001272 g     F .text	00000220 self_check
00001a3a g     F .text	0000000a _cleanup_r
00000c8a  w      .text	00000000 EXTI0_IRQHandler
00000cc0  w      .text	00000000 I2C2_EV_IRQHandler
00000d1e  w      .text	00000000 TIM10_TRG_COM_IRQHandler
0000167e g     F .text	0000000a puts
00002778 g     F .text	0000000c _fstat
00000038 g       .init	00000000 _einit
0000094c g     F .text	00000046 RCC_APB2PeriphClockCmd
00000d02  w      .text	00000000 CAN2_SCE_IRQHandler
00000ca2  w      .text	00000000 ADC1_2_IRQHandler
000003da g     F .text	00000222 GPIO_Init
00000c78  w      .text	00000000 Break_Point_Handler
00000cc4  w      .text	00000000 SPI1_IRQHandler
00000ba8 g     F .text	00000058 USART_Cmd
0000257c g     F .text	0000002a _sbrk_r
00000c82  w      .text	00000000 TAMPER_IRQHandler
00002740 g     F .text	0000002c _read_r
00000cfe  w      .text	00000000 CAN2_RX0_IRQHandler
00000cd6  w      .text	00000000 TIM8_UP_IRQHandler
00000c74  w      .text	00000000 Ecall_M_Mode_Handler
2001f800 g       .stack	00000000 _heap_end
00002784 g     F .text	0000000c _isatty
2000008c g     O .data	00000004 _global_impure_ptr
00000cf0  w      .text	00000000 DMA2_Channel2_IRQHandler
00000c9a  w      .text	00000000 DMA1_Channel4_IRQHandler
0000036c g     F .text	0000006e _sbrk
00000d14  w      .text	00000000 TIM9_UP_IRQHandler
00000ccc  w      .text	00000000 USART3_IRQHandler
00000c84  w      .text	00000000 RTC_IRQHandler
200000b4 g       .bss	00000000 _ebss
00000ca0  w      .text	00000000 DMA1_Channel7_IRQHandler
00000ca8  w      .text	00000000 CAN1_RX1_IRQHandler
00000d0a  w      .text	00000000 DVP_IRQHandler
00000ce8  w      .text	00000000 UART5_IRQHandler
000024f8 g     F .text	00000084 _putc_r
00000cba  w      .text	00000000 TIM4_IRQHandler
00000cee  w      .text	00000000 DMA2_Channel1_IRQHandler
20000094 g     O .bss	00000004 d_mcause
00002aec g     O .text	00000020 __sf_fake_stderr
00000cbc  w      .text	00000000 I2C1_EV_IRQHandler
000002dc g     F .text	0000001a __get_MARCHID
000005fc g     F .text	00000350 RCC_GetClocksFreq
00000c9e  w      .text	00000000 DMA1_Channel6_IRQHandler
00001e86 g     F .text	00000040 __sfputs_r
00000ce6  w      .text	00000000 UART4_IRQHandler
00000cf4  w      .text	00000000 DMA2_Channel4_IRQHandler
00002724 g     F .text	00000018 memchr
00000992 g     F .text	00000216 USART_Init
00001cde g     F .text	000000a8 _free_r
00000cb8  w      .text	00000000 TIM3_IRQHandler
00000c88  w      .text	00000000 RCC_IRQHandler
00000cb2  w      .text	00000000 TIM1_TRG_COM_IRQHandler
00000c94  w      .text	00000000 DMA1_Channel1_IRQHandler
00000000 g       .init	00000000 _start
00000d24  w      .text	00000000 DMA2_Channel7_IRQHandler
000002a8 g     F .text	0000001a __get_MISA
00002790 g     F .text	0000000c _lseek
00000cce  w      .text	00000000 EXTI15_10_IRQHandler
00000cec  w      .text	00000000 TIM7_IRQHandler
0000267e g     F .text	00000028 _close_r
00000cfc  w      .text	00000000 CAN2_TX_IRQHandler
20000000 g       .dalign	00000000 _data_vma
00000ce2  w      .text	00000000 TIM5_IRQHandler
00001744 g     F .text	000000fc __swsetup_r
0000104c g     F .text	0000007e printf_init
00000cac  w      .text	00000000 EXTI9_5_IRQHandler
00001af0 g     F .text	0000009c __sfp
000025a6 g     F .text	0000002c __sread
00000cfa  w      .text	00000000 ETH_WKUP_IRQHandler
0000273c g     F .text	00000002 __malloc_lock
00001970 g     F .text	00000064 _fflush_r
00000cc6  w      .text	00000000 SPI2_IRQHandler
00002b0c g     O .text	00000020 __sf_fake_stdin
00000200 g     F .text	000000a8 memset
00000e9a g     F .text	00000028 main
00000d1a  w      .text	00000000 TIM10_BRK_IRQHandler
00000d18  w      .text	00000000 TIM9_CC_IRQHandler
0000264a g     F .text	00000006 __sclose
00000cf6  w      .text	00000000 DMA2_Channel5_IRQHandler
00001d86 g     F .text	000000d8 _malloc_r
200000a4 g     O .bss	0000000c core_csr
00000c9c  w      .text	00000000 DMA1_Channel5_IRQHandler
00000c92  w      .text	00000000 EXTI4_IRQHandler
00000ec2 g     F .text	000000dc Delay_Ms
00000ca6  w      .text	00000000 USB_LP_CAN1_RX0_IRQHandler
00000f9e g     F .text	00000098 SystemInit
00000cdc  w      .text	00000000 RNG_IRQHandler
00001540 g     F .text	00000040 iprintf
00000ca4  w      .text	00000000 USB_HP_CAN1_TX_IRQHandler
00000000 g       .init	00000000 _sinit
00002650 g     F .text	0000002e _write_r
00000c98  w      .text	00000000 DMA1_Channel3_IRQHandler
00000cde  w      .text	00000000 FSMC_IRQHandler
00000cf8  w      .text	00000000 ETH_IRQHandler
0000214c g     F .text	0000010c _printf_common
20000088 g     O .data	00000004 _impure_ptr
00000cb0  w      .text	00000000 TIM1_UP_IRQHandler
00001840 g     F .text	00000130 __sflush_r
00000c7e  w      .text	00000000 WWDG_IRQHandler
00000d06  w      .text	00000000 USBHSWakeup_IRQHandler
00000d2c  w      .text	00000000 DMA2_Channel11_IRQHandler
00000c76  w      .text	00000000 Ecall_U_Mode_Handler
00000d22  w      .text	00000000 DMA2_Channel6_IRQHandler
00000cb6  w      .text	00000000 TIM2_IRQHandler
20020000 g       .stack	00000000 _eusrstack
00000e04 g     F .text	00000036 SW_Handler
00000cae  w      .text	00000000 TIM1_BRK_IRQHandler
00001bf6 g     F .text	00000058 __swhatbuf_r
00000c00 g     F .text	0000002c USART_SendData
00000d2a  w      .text	00000000 DMA2_Channel10_IRQHandler
00000c8c  w      .text	00000000 EXTI1_IRQHandler
000002f6 g     F .text	00000076 _write
20000090 g       .data	00000000 _edata
200000b4 g       .bss	00000000 _end
00000cd0  w      .text	00000000 RTCAlarm_IRQHandler
00002b88 g       .dlalign	00000000 _data_lma
00000d1c  w      .text	00000000 TIM10_UP_IRQHandler
00000d16  w      .text	00000000 TIM9_TRG_COM_IRQHandler
00000d0e  w      .text	00000000 UART7_IRQHandler
00000cca  w      .text	00000000 USART2_IRQHandler
00000d0c  w      .text	00000000 UART6_IRQHandler
000025d2 g     F .text	00000048 __swrite
00001ec6 g     F .text	00000286 _vfiprintf_r
00001b8c g     F .text	0000006a _fwalk_reent
00000cc2  w      .text	00000000 I2C2_ER_IRQHandler
00000c96  w      .text	00000000 DMA1_Channel2_IRQHandler
00002b2c g     O .text	00000020 __sf_fake_stdout
00000cd4  w      .text	00000000 TIM8_BRK_IRQHandler
0000279c g     F .text	0000000c _read
20000090 g     O .bss	00000004 d_mepc
00000d2e  w      .text	00000000 handle_reset
00000caa  w      .text	00000000 CAN1_SCE_IRQHandler
00000c86  w      .text	00000000 FLASH_IRQHandler
20000098 g     O .bss	00000004 d_mtval
00000cc8  w      .text	00000000 USART1_IRQHandler
00001c4e g     F .text	00000090 __smakebuf_r
00000d04  w      .text	00000000 OTG_FS_IRQHandler
00002258 g     F .text	000002a0 _printf_i
00000ce4  w      .text	00000000 SPI3_IRQHandler
200000a0 g     O .bss	00000004 __malloc_sbrk_start
00000cbe  w      .text	00000000 I2C1_ER_IRQHandler
2000009c g     O .bss	00000004 __malloc_free_list
00001ec6 g     F .text	00000286 _vfprintf_r
00000cd2  w      .text	00000000 USBWakeUp_IRQHandler
0000276c g     F .text	0000000c _close
00000cf2  w      .text	00000000 DMA2_Channel3_IRQHandler



Disassembly of section .init:

00000000 <_sinit>:
   0:	52f0006f          	j	d2e <handle_reset>
   4:	00000013          	nop
   8:	00000013          	nop
   c:	00000013          	nop
  10:	00000013          	nop
  14:	00000013          	nop
  18:	00000013          	nop
  1c:	00000013          	nop
  20:	00000013          	nop
  24:	00000013          	nop
  28:	00000013          	nop
  2c:	00000013          	nop
  30:	00000013          	nop
  34:	00100073          	ebreak

Disassembly of section .vector:

00000038 <_vector_base>:
	...
  40:	0dea                	slli	s11,s11,0x1a
  42:	0000                	unimp
  44:	0e3a                	slli	t3,t3,0xe
  46:	0000                	unimp
  48:	0000                	unimp
  4a:	0000                	unimp
  4c:	0c74                	addi	a3,sp,540
	...
  56:	0000                	unimp
  58:	0c76                	slli	s8,s8,0x1d
  5a:	0000                	unimp
  5c:	0c78                	addi	a4,sp,540
	...
  66:	0000                	unimp
  68:	0c7a                	slli	s8,s8,0x1e
  6a:	0000                	unimp
  6c:	0000                	unimp
  6e:	0000                	unimp
  70:	0e04                	addi	s1,sp,784
  72:	0000                	unimp
  74:	0000                	unimp
  76:	0000                	unimp
  78:	0c7e                	slli	s8,s8,0x1f
  7a:	0000                	unimp
  7c:	0c80                	addi	s0,sp,592
  7e:	0000                	unimp
  80:	0c82                	c.slli64	s9
  82:	0000                	unimp
  84:	0c84                	addi	s1,sp,592
  86:	0000                	unimp
  88:	0c86                	slli	s9,s9,0x1
  8a:	0000                	unimp
  8c:	0c88                	addi	a0,sp,592
  8e:	0000                	unimp
  90:	0c8a                	slli	s9,s9,0x2
  92:	0000                	unimp
  94:	0c8c                	addi	a1,sp,592
  96:	0000                	unimp
  98:	0c8e                	slli	s9,s9,0x3
  9a:	0000                	unimp
  9c:	0c90                	addi	a2,sp,592
  9e:	0000                	unimp
  a0:	0c92                	slli	s9,s9,0x4
  a2:	0000                	unimp
  a4:	0c94                	addi	a3,sp,592
  a6:	0000                	unimp
  a8:	0c96                	slli	s9,s9,0x5
  aa:	0000                	unimp
  ac:	0c98                	addi	a4,sp,592
  ae:	0000                	unimp
  b0:	0c9a                	slli	s9,s9,0x6
  b2:	0000                	unimp
  b4:	0c9c                	addi	a5,sp,592
  b6:	0000                	unimp
  b8:	0c9e                	slli	s9,s9,0x7
  ba:	0000                	unimp
  bc:	0ca0                	addi	s0,sp,600
  be:	0000                	unimp
  c0:	0ca2                	slli	s9,s9,0x8
  c2:	0000                	unimp
  c4:	0ca4                	addi	s1,sp,600
  c6:	0000                	unimp
  c8:	0ca6                	slli	s9,s9,0x9
  ca:	0000                	unimp
  cc:	0ca8                	addi	a0,sp,600
  ce:	0000                	unimp
  d0:	0caa                	slli	s9,s9,0xa
  d2:	0000                	unimp
  d4:	0cac                	addi	a1,sp,600
  d6:	0000                	unimp
  d8:	0cae                	slli	s9,s9,0xb
  da:	0000                	unimp
  dc:	0cb0                	addi	a2,sp,600
  de:	0000                	unimp
  e0:	0cb2                	slli	s9,s9,0xc
  e2:	0000                	unimp
  e4:	0cb4                	addi	a3,sp,600
  e6:	0000                	unimp
  e8:	0cb6                	slli	s9,s9,0xd
  ea:	0000                	unimp
  ec:	0cb8                	addi	a4,sp,600
  ee:	0000                	unimp
  f0:	0cba                	slli	s9,s9,0xe
  f2:	0000                	unimp
  f4:	0cbc                	addi	a5,sp,600
  f6:	0000                	unimp
  f8:	0cbe                	slli	s9,s9,0xf
  fa:	0000                	unimp
  fc:	0cc0                	addi	s0,sp,596
  fe:	0000                	unimp
 100:	0cc2                	slli	s9,s9,0x10
 102:	0000                	unimp
 104:	0cc4                	addi	s1,sp,596
 106:	0000                	unimp
 108:	0cc6                	slli	s9,s9,0x11
 10a:	0000                	unimp
 10c:	0cc8                	addi	a0,sp,596
 10e:	0000                	unimp
 110:	0cca                	slli	s9,s9,0x12
 112:	0000                	unimp
 114:	0ccc                	addi	a1,sp,596
 116:	0000                	unimp
 118:	0cce                	slli	s9,s9,0x13
 11a:	0000                	unimp
 11c:	0cd0                	addi	a2,sp,596
 11e:	0000                	unimp
 120:	0cd2                	slli	s9,s9,0x14
 122:	0000                	unimp
 124:	0cd4                	addi	a3,sp,596
 126:	0000                	unimp
 128:	0cd6                	slli	s9,s9,0x15
 12a:	0000                	unimp
 12c:	0cd8                	addi	a4,sp,596
 12e:	0000                	unimp
 130:	0cda                	slli	s9,s9,0x16
 132:	0000                	unimp
 134:	0cdc                	addi	a5,sp,596
 136:	0000                	unimp
 138:	0cde                	slli	s9,s9,0x17
 13a:	0000                	unimp
 13c:	0ce0                	addi	s0,sp,604
 13e:	0000                	unimp
 140:	0ce2                	slli	s9,s9,0x18
 142:	0000                	unimp
 144:	0ce4                	addi	s1,sp,604
 146:	0000                	unimp
 148:	0ce6                	slli	s9,s9,0x19
 14a:	0000                	unimp
 14c:	0ce8                	addi	a0,sp,604
 14e:	0000                	unimp
 150:	0cea                	slli	s9,s9,0x1a
 152:	0000                	unimp
 154:	0cec                	addi	a1,sp,604
 156:	0000                	unimp
 158:	0cee                	slli	s9,s9,0x1b
 15a:	0000                	unimp
 15c:	0cf0                	addi	a2,sp,604
 15e:	0000                	unimp
 160:	0cf2                	slli	s9,s9,0x1c
 162:	0000                	unimp
 164:	0cf4                	addi	a3,sp,604
 166:	0000                	unimp
 168:	0cf6                	slli	s9,s9,0x1d
 16a:	0000                	unimp
 16c:	0cf8                	addi	a4,sp,604
 16e:	0000                	unimp
 170:	0cfa                	slli	s9,s9,0x1e
 172:	0000                	unimp
 174:	0cfc                	addi	a5,sp,604
 176:	0000                	unimp
 178:	0cfe                	slli	s9,s9,0x1f
 17a:	0000                	unimp
 17c:	0d00                	addi	s0,sp,656
 17e:	0000                	unimp
 180:	0d02                	c.slli64	s10
 182:	0000                	unimp
 184:	0d04                	addi	s1,sp,656
 186:	0000                	unimp
 188:	0d06                	slli	s10,s10,0x1
 18a:	0000                	unimp
 18c:	0d08                	addi	a0,sp,656
 18e:	0000                	unimp
 190:	0d0a                	slli	s10,s10,0x2
 192:	0000                	unimp
 194:	0d0c                	addi	a1,sp,656
 196:	0000                	unimp
 198:	0d0e                	slli	s10,s10,0x3
 19a:	0000                	unimp
 19c:	0d10                	addi	a2,sp,656
 19e:	0000                	unimp
 1a0:	0d12                	slli	s10,s10,0x4
 1a2:	0000                	unimp
 1a4:	0d14                	addi	a3,sp,656
 1a6:	0000                	unimp
 1a8:	0d16                	slli	s10,s10,0x5
 1aa:	0000                	unimp
 1ac:	0d18                	addi	a4,sp,656
 1ae:	0000                	unimp
 1b0:	0d1a                	slli	s10,s10,0x6
 1b2:	0000                	unimp
 1b4:	0d1c                	addi	a5,sp,656
 1b6:	0000                	unimp
 1b8:	0d1e                	slli	s10,s10,0x7
 1ba:	0000                	unimp
 1bc:	0d20                	addi	s0,sp,664
 1be:	0000                	unimp
 1c0:	0d22                	slli	s10,s10,0x8
 1c2:	0000                	unimp
 1c4:	0d24                	addi	s1,sp,664
 1c6:	0000                	unimp
 1c8:	0d26                	slli	s10,s10,0x9
 1ca:	0000                	unimp
 1cc:	0d28                	addi	a0,sp,664
 1ce:	0000                	unimp
 1d0:	0d2a                	slli	s10,s10,0xa
 1d2:	0000                	unimp
 1d4:	0d2c                	addi	a1,sp,664
	...

Disassembly of section .text:

00000200 <memset>:
     200:	433d                	li	t1,15
     202:	872a                	mv	a4,a0
     204:	02c37363          	bgeu	t1,a2,22a <memset+0x2a>
     208:	00f77793          	andi	a5,a4,15
     20c:	efbd                	bnez	a5,28a <memset+0x8a>
     20e:	e5ad                	bnez	a1,278 <memset+0x78>
     210:	ff067693          	andi	a3,a2,-16
     214:	8a3d                	andi	a2,a2,15
     216:	96ba                	add	a3,a3,a4
     218:	c30c                	sw	a1,0(a4)
     21a:	c34c                	sw	a1,4(a4)
     21c:	c70c                	sw	a1,8(a4)
     21e:	c74c                	sw	a1,12(a4)
     220:	0741                	addi	a4,a4,16
     222:	fed76be3          	bltu	a4,a3,218 <memset+0x18>
     226:	e211                	bnez	a2,22a <memset+0x2a>
     228:	8082                	ret
     22a:	40c306b3          	sub	a3,t1,a2
     22e:	068a                	slli	a3,a3,0x2
     230:	00000297          	auipc	t0,0x0
     234:	9696                	add	a3,a3,t0
     236:	00a68067          	jr	10(a3)
     23a:	00b70723          	sb	a1,14(a4)
     23e:	00b706a3          	sb	a1,13(a4)
     242:	00b70623          	sb	a1,12(a4)
     246:	00b705a3          	sb	a1,11(a4)
     24a:	00b70523          	sb	a1,10(a4)
     24e:	00b704a3          	sb	a1,9(a4)
     252:	00b70423          	sb	a1,8(a4)
     256:	00b703a3          	sb	a1,7(a4)
     25a:	00b70323          	sb	a1,6(a4)
     25e:	00b702a3          	sb	a1,5(a4)
     262:	00b70223          	sb	a1,4(a4)
     266:	00b701a3          	sb	a1,3(a4)
     26a:	00b70123          	sb	a1,2(a4)
     26e:	00b700a3          	sb	a1,1(a4)
     272:	00b70023          	sb	a1,0(a4)
     276:	8082                	ret
     278:	0ff5f593          	andi	a1,a1,255
     27c:	00859693          	slli	a3,a1,0x8
     280:	8dd5                	or	a1,a1,a3
     282:	01059693          	slli	a3,a1,0x10
     286:	8dd5                	or	a1,a1,a3
     288:	b761                	j	210 <memset+0x10>
     28a:	00279693          	slli	a3,a5,0x2
     28e:	00000297          	auipc	t0,0x0
     292:	9696                	add	a3,a3,t0
     294:	8286                	mv	t0,ra
     296:	fa8680e7          	jalr	-88(a3)
     29a:	8096                	mv	ra,t0
     29c:	17c1                	addi	a5,a5,-16
     29e:	8f1d                	sub	a4,a4,a5
     2a0:	963e                	add	a2,a2,a5
     2a2:	f8c374e3          	bgeu	t1,a2,22a <memset+0x2a>
     2a6:	b7a5                	j	20e <memset+0xe>

000002a8 <__get_MISA>:
     2a8:	1101                	addi	sp,sp,-32
     2aa:	ce22                	sw	s0,28(sp)
     2ac:	1000                	addi	s0,sp,32
     2ae:	301027f3          	csrr	a5,misa
     2b2:	fef42623          	sw	a5,-20(s0)
     2b6:	fec42783          	lw	a5,-20(s0)
     2ba:	853e                	mv	a0,a5
     2bc:	4472                	lw	s0,28(sp)
     2be:	6105                	addi	sp,sp,32
     2c0:	8082                	ret

000002c2 <__get_MTVEC>:
     2c2:	1101                	addi	sp,sp,-32
     2c4:	ce22                	sw	s0,28(sp)
     2c6:	1000                	addi	s0,sp,32
     2c8:	305027f3          	csrr	a5,mtvec
     2cc:	fef42623          	sw	a5,-20(s0)
     2d0:	fec42783          	lw	a5,-20(s0)
     2d4:	853e                	mv	a0,a5
     2d6:	4472                	lw	s0,28(sp)
     2d8:	6105                	addi	sp,sp,32
     2da:	8082                	ret

000002dc <__get_MARCHID>:
     2dc:	1101                	addi	sp,sp,-32
     2de:	ce22                	sw	s0,28(sp)
     2e0:	1000                	addi	s0,sp,32
     2e2:	f12027f3          	csrr	a5,marchid
     2e6:	fef42623          	sw	a5,-20(s0)
     2ea:	fec42783          	lw	a5,-20(s0)
     2ee:	853e                	mv	a0,a5
     2f0:	4472                	lw	s0,28(sp)
     2f2:	6105                	addi	sp,sp,32
     2f4:	8082                	ret

000002f6 <_write>:
     2f6:	7179                	addi	sp,sp,-48
     2f8:	d606                	sw	ra,44(sp)
     2fa:	d422                	sw	s0,40(sp)
     2fc:	1800                	addi	s0,sp,48
     2fe:	fca42e23          	sw	a0,-36(s0)
     302:	fcb42c23          	sw	a1,-40(s0)
     306:	fcc42a23          	sw	a2,-44(s0)
     30a:	fe042623          	sw	zero,-20(s0)
     30e:	a091                	j	352 <_write+0x5c>
     310:	0001                	nop
     312:	04000593          	li	a1,64
     316:	400147b7          	lui	a5,0x40014
     31a:	80078513          	addi	a0,a5,-2048 # 40013800 <_eusrstack+0x1fff3800>
     31e:	10f000ef          	jal	ra,c2c <USART_GetFlagStatus>
     322:	87aa                	mv	a5,a0
     324:	d7fd                	beqz	a5,312 <_write+0x1c>
     326:	fd842783          	lw	a5,-40(s0)
     32a:	00178713          	addi	a4,a5,1
     32e:	fce42c23          	sw	a4,-40(s0)
     332:	00078783          	lb	a5,0(a5)
     336:	07c2                	slli	a5,a5,0x10
     338:	83c1                	srli	a5,a5,0x10
     33a:	85be                	mv	a1,a5
     33c:	400147b7          	lui	a5,0x40014
     340:	80078513          	addi	a0,a5,-2048 # 40013800 <_eusrstack+0x1fff3800>
     344:	0bd000ef          	jal	ra,c00 <USART_SendData>
     348:	fec42783          	lw	a5,-20(s0)
     34c:	0785                	addi	a5,a5,1
     34e:	fef42623          	sw	a5,-20(s0)
     352:	fec42703          	lw	a4,-20(s0)
     356:	fd442783          	lw	a5,-44(s0)
     35a:	faf74be3          	blt	a4,a5,310 <_write+0x1a>
     35e:	fd442783          	lw	a5,-44(s0)
     362:	853e                	mv	a0,a5
     364:	50b2                	lw	ra,44(sp)
     366:	5422                	lw	s0,40(sp)
     368:	6145                	addi	sp,sp,48
     36a:	8082                	ret

0000036c <_sbrk>:
     36c:	1101                	addi	sp,sp,-32
     36e:	ce22                	sw	s0,28(sp)
     370:	1000                	addi	s0,sp,32
     372:	fea42623          	sw	a0,-20(s0)
     376:	200007b7          	lui	a5,0x20000
     37a:	0807a703          	lw	a4,128(a5) # 20000080 <curbrk.5199>
     37e:	fec42783          	lw	a5,-20(s0)
     382:	973e                	add	a4,a4,a5
     384:	83418793          	addi	a5,gp,-1996 # 200000b4 <_ebss>
     388:	00f76f63          	bltu	a4,a5,3a6 <_sbrk+0x3a>
     38c:	200007b7          	lui	a5,0x20000
     390:	0807a703          	lw	a4,128(a5) # 20000080 <curbrk.5199>
     394:	fec42783          	lw	a5,-20(s0)
     398:	973e                	add	a4,a4,a5
     39a:	200207b7          	lui	a5,0x20020
     39e:	80078793          	addi	a5,a5,-2048 # 2001f800 <_heap_end>
     3a2:	00e7f463          	bgeu	a5,a4,3aa <_sbrk+0x3e>
     3a6:	57fd                	li	a5,-1
     3a8:	a02d                	j	3d2 <_sbrk+0x66>
     3aa:	200007b7          	lui	a5,0x20000
     3ae:	0807a703          	lw	a4,128(a5) # 20000080 <curbrk.5199>
     3b2:	fec42783          	lw	a5,-20(s0)
     3b6:	973e                	add	a4,a4,a5
     3b8:	200007b7          	lui	a5,0x20000
     3bc:	08e7a023          	sw	a4,128(a5) # 20000080 <curbrk.5199>
     3c0:	200007b7          	lui	a5,0x20000
     3c4:	0807a703          	lw	a4,128(a5) # 20000080 <curbrk.5199>
     3c8:	fec42783          	lw	a5,-20(s0)
     3cc:	40f007b3          	neg	a5,a5
     3d0:	97ba                	add	a5,a5,a4
     3d2:	853e                	mv	a0,a5
     3d4:	4472                	lw	s0,28(sp)
     3d6:	6105                	addi	sp,sp,32
     3d8:	8082                	ret

000003da <GPIO_Init>:
     3da:	7139                	addi	sp,sp,-64
     3dc:	de22                	sw	s0,60(sp)
     3de:	0080                	addi	s0,sp,64
     3e0:	fca42623          	sw	a0,-52(s0)
     3e4:	fcb42423          	sw	a1,-56(s0)
     3e8:	fe042623          	sw	zero,-20(s0)
     3ec:	fe042023          	sw	zero,-32(s0)
     3f0:	fe042423          	sw	zero,-24(s0)
     3f4:	fc042e23          	sw	zero,-36(s0)
     3f8:	fe042223          	sw	zero,-28(s0)
     3fc:	fc042c23          	sw	zero,-40(s0)
     400:	fc842783          	lw	a5,-56(s0)
     404:	479c                	lw	a5,8(a5)
     406:	8bbd                	andi	a5,a5,15
     408:	fef42623          	sw	a5,-20(s0)
     40c:	fc842783          	lw	a5,-56(s0)
     410:	479c                	lw	a5,8(a5)
     412:	8bc1                	andi	a5,a5,16
     414:	cb89                	beqz	a5,426 <GPIO_Init+0x4c>
     416:	fc842783          	lw	a5,-56(s0)
     41a:	43dc                	lw	a5,4(a5)
     41c:	fec42703          	lw	a4,-20(s0)
     420:	8fd9                	or	a5,a5,a4
     422:	fef42623          	sw	a5,-20(s0)
     426:	fc842783          	lw	a5,-56(s0)
     42a:	239e                	fld	ft7,448(sp)
     42c:	0ff7f793          	andi	a5,a5,255
     430:	cfe9                	beqz	a5,50a <GPIO_Init+0x130>
     432:	fcc42783          	lw	a5,-52(s0)
     436:	439c                	lw	a5,0(a5)
     438:	fef42223          	sw	a5,-28(s0)
     43c:	fe042423          	sw	zero,-24(s0)
     440:	a85d                	j	4f6 <GPIO_Init+0x11c>
     442:	fe842783          	lw	a5,-24(s0)
     446:	4705                	li	a4,1
     448:	00f717b3          	sll	a5,a4,a5
     44c:	fcf42e23          	sw	a5,-36(s0)
     450:	fc842783          	lw	a5,-56(s0)
     454:	239e                	fld	ft7,448(sp)
     456:	873e                	mv	a4,a5
     458:	fdc42783          	lw	a5,-36(s0)
     45c:	8ff9                	and	a5,a5,a4
     45e:	fef42023          	sw	a5,-32(s0)
     462:	fe042703          	lw	a4,-32(s0)
     466:	fdc42783          	lw	a5,-36(s0)
     46a:	08f71163          	bne	a4,a5,4ec <GPIO_Init+0x112>
     46e:	fe842783          	lw	a5,-24(s0)
     472:	078a                	slli	a5,a5,0x2
     474:	fcf42e23          	sw	a5,-36(s0)
     478:	fdc42783          	lw	a5,-36(s0)
     47c:	473d                	li	a4,15
     47e:	00f717b3          	sll	a5,a4,a5
     482:	fcf42c23          	sw	a5,-40(s0)
     486:	fd842783          	lw	a5,-40(s0)
     48a:	fff7c793          	not	a5,a5
     48e:	fe442703          	lw	a4,-28(s0)
     492:	8ff9                	and	a5,a5,a4
     494:	fef42223          	sw	a5,-28(s0)
     498:	fdc42783          	lw	a5,-36(s0)
     49c:	fec42703          	lw	a4,-20(s0)
     4a0:	00f717b3          	sll	a5,a4,a5
     4a4:	fe442703          	lw	a4,-28(s0)
     4a8:	8fd9                	or	a5,a5,a4
     4aa:	fef42223          	sw	a5,-28(s0)
     4ae:	fc842783          	lw	a5,-56(s0)
     4b2:	4798                	lw	a4,8(a5)
     4b4:	02800793          	li	a5,40
     4b8:	00f71b63          	bne	a4,a5,4ce <GPIO_Init+0xf4>
     4bc:	fe842783          	lw	a5,-24(s0)
     4c0:	4705                	li	a4,1
     4c2:	00f71733          	sll	a4,a4,a5
     4c6:	fcc42783          	lw	a5,-52(s0)
     4ca:	cbd8                	sw	a4,20(a5)
     4cc:	a005                	j	4ec <GPIO_Init+0x112>
     4ce:	fc842783          	lw	a5,-56(s0)
     4d2:	4798                	lw	a4,8(a5)
     4d4:	04800793          	li	a5,72
     4d8:	00f71a63          	bne	a4,a5,4ec <GPIO_Init+0x112>
     4dc:	fe842783          	lw	a5,-24(s0)
     4e0:	4705                	li	a4,1
     4e2:	00f71733          	sll	a4,a4,a5
     4e6:	fcc42783          	lw	a5,-52(s0)
     4ea:	cb98                	sw	a4,16(a5)
     4ec:	fe842783          	lw	a5,-24(s0)
     4f0:	0785                	addi	a5,a5,1
     4f2:	fef42423          	sw	a5,-24(s0)
     4f6:	fe842703          	lw	a4,-24(s0)
     4fa:	479d                	li	a5,7
     4fc:	f4e7f3e3          	bgeu	a5,a4,442 <GPIO_Init+0x68>
     500:	fcc42783          	lw	a5,-52(s0)
     504:	fe442703          	lw	a4,-28(s0)
     508:	c398                	sw	a4,0(a5)
     50a:	fc842783          	lw	a5,-56(s0)
     50e:	239a                	fld	ft7,384(sp)
     510:	0ff00793          	li	a5,255
     514:	0ee7f063          	bgeu	a5,a4,5f4 <GPIO_Init+0x21a>
     518:	fcc42783          	lw	a5,-52(s0)
     51c:	43dc                	lw	a5,4(a5)
     51e:	fef42223          	sw	a5,-28(s0)
     522:	fe042423          	sw	zero,-24(s0)
     526:	a86d                	j	5e0 <GPIO_Init+0x206>
     528:	fe842783          	lw	a5,-24(s0)
     52c:	07a1                	addi	a5,a5,8
     52e:	4705                	li	a4,1
     530:	00f717b3          	sll	a5,a4,a5
     534:	fcf42e23          	sw	a5,-36(s0)
     538:	fc842783          	lw	a5,-56(s0)
     53c:	239e                	fld	ft7,448(sp)
     53e:	873e                	mv	a4,a5
     540:	fdc42783          	lw	a5,-36(s0)
     544:	8ff9                	and	a5,a5,a4
     546:	fef42023          	sw	a5,-32(s0)
     54a:	fe042703          	lw	a4,-32(s0)
     54e:	fdc42783          	lw	a5,-36(s0)
     552:	08f71263          	bne	a4,a5,5d6 <GPIO_Init+0x1fc>
     556:	fe842783          	lw	a5,-24(s0)
     55a:	078a                	slli	a5,a5,0x2
     55c:	fcf42e23          	sw	a5,-36(s0)
     560:	fdc42783          	lw	a5,-36(s0)
     564:	473d                	li	a4,15
     566:	00f717b3          	sll	a5,a4,a5
     56a:	fcf42c23          	sw	a5,-40(s0)
     56e:	fd842783          	lw	a5,-40(s0)
     572:	fff7c793          	not	a5,a5
     576:	fe442703          	lw	a4,-28(s0)
     57a:	8ff9                	and	a5,a5,a4
     57c:	fef42223          	sw	a5,-28(s0)
     580:	fdc42783          	lw	a5,-36(s0)
     584:	fec42703          	lw	a4,-20(s0)
     588:	00f717b3          	sll	a5,a4,a5
     58c:	fe442703          	lw	a4,-28(s0)
     590:	8fd9                	or	a5,a5,a4
     592:	fef42223          	sw	a5,-28(s0)
     596:	fc842783          	lw	a5,-56(s0)
     59a:	4798                	lw	a4,8(a5)
     59c:	02800793          	li	a5,40
     5a0:	00f71b63          	bne	a4,a5,5b6 <GPIO_Init+0x1dc>
     5a4:	fe842783          	lw	a5,-24(s0)
     5a8:	07a1                	addi	a5,a5,8
     5aa:	4705                	li	a4,1
     5ac:	00f71733          	sll	a4,a4,a5
     5b0:	fcc42783          	lw	a5,-52(s0)
     5b4:	cbd8                	sw	a4,20(a5)
     5b6:	fc842783          	lw	a5,-56(s0)
     5ba:	4798                	lw	a4,8(a5)
     5bc:	04800793          	li	a5,72
     5c0:	00f71b63          	bne	a4,a5,5d6 <GPIO_Init+0x1fc>
     5c4:	fe842783          	lw	a5,-24(s0)
     5c8:	07a1                	addi	a5,a5,8
     5ca:	4705                	li	a4,1
     5cc:	00f71733          	sll	a4,a4,a5
     5d0:	fcc42783          	lw	a5,-52(s0)
     5d4:	cb98                	sw	a4,16(a5)
     5d6:	fe842783          	lw	a5,-24(s0)
     5da:	0785                	addi	a5,a5,1
     5dc:	fef42423          	sw	a5,-24(s0)
     5e0:	fe842703          	lw	a4,-24(s0)
     5e4:	479d                	li	a5,7
     5e6:	f4e7f1e3          	bgeu	a5,a4,528 <GPIO_Init+0x14e>
     5ea:	fcc42783          	lw	a5,-52(s0)
     5ee:	fe442703          	lw	a4,-28(s0)
     5f2:	c3d8                	sw	a4,4(a5)
     5f4:	0001                	nop
     5f6:	5472                	lw	s0,60(sp)
     5f8:	6121                	addi	sp,sp,64
     5fa:	8082                	ret

000005fc <RCC_GetClocksFreq>:
     5fc:	7139                	addi	sp,sp,-64
     5fe:	de22                	sw	s0,60(sp)
     600:	0080                	addi	s0,sp,64
     602:	fca42623          	sw	a0,-52(s0)
     606:	fe042223          	sw	zero,-28(s0)
     60a:	fe042623          	sw	zero,-20(s0)
     60e:	fe042023          	sw	zero,-32(s0)
     612:	fc042e23          	sw	zero,-36(s0)
     616:	fc042c23          	sw	zero,-40(s0)
     61a:	fc042a23          	sw	zero,-44(s0)
     61e:	fe042423          	sw	zero,-24(s0)
     622:	400217b7          	lui	a5,0x40021
     626:	43dc                	lw	a5,4(a5)
     628:	8bb1                	andi	a5,a5,12
     62a:	fef42223          	sw	a5,-28(s0)
     62e:	fe442703          	lw	a4,-28(s0)
     632:	4791                	li	a5,4
     634:	02f70363          	beq	a4,a5,65a <RCC_GetClocksFreq+0x5e>
     638:	fe442703          	lw	a4,-28(s0)
     63c:	47a1                	li	a5,8
     63e:	02f70663          	beq	a4,a5,66a <RCC_GetClocksFreq+0x6e>
     642:	fe442783          	lw	a5,-28(s0)
     646:	1c079c63          	bnez	a5,81e <__stack_size+0x1e>
     64a:	fcc42783          	lw	a5,-52(s0)
     64e:	007a1737          	lui	a4,0x7a1
     652:	20070713          	addi	a4,a4,512 # 7a1200 <_data_lma+0x79e678>
     656:	c398                	sw	a4,0(a5)
     658:	aae1                	j	830 <__stack_size+0x30>
     65a:	fcc42783          	lw	a5,-52(s0)
     65e:	007a1737          	lui	a4,0x7a1
     662:	20070713          	addi	a4,a4,512 # 7a1200 <_data_lma+0x79e678>
     666:	c398                	sw	a4,0(a5)
     668:	a2e1                	j	830 <__stack_size+0x30>
     66a:	400217b7          	lui	a5,0x40021
     66e:	43d8                	lw	a4,4(a5)
     670:	003c07b7          	lui	a5,0x3c0
     674:	8ff9                	and	a5,a5,a4
     676:	fef42623          	sw	a5,-20(s0)
     67a:	400217b7          	lui	a5,0x40021
     67e:	43d8                	lw	a4,4(a5)
     680:	67c1                	lui	a5,0x10
     682:	8ff9                	and	a5,a5,a4
     684:	fef42023          	sw	a5,-32(s0)
     688:	400217b7          	lui	a5,0x40021
     68c:	57dc                	lw	a5,44(a5)
     68e:	83a1                	srli	a5,a5,0x8
     690:	8bbd                	andi	a5,a5,15
     692:	fcf42e23          	sw	a5,-36(s0)
     696:	400217b7          	lui	a5,0x40021
     69a:	57dc                	lw	a5,44(a5)
     69c:	8391                	srli	a5,a5,0x4
     69e:	8bbd                	andi	a5,a5,15
     6a0:	fcf42c23          	sw	a5,-40(s0)
     6a4:	fec42783          	lw	a5,-20(s0)
     6a8:	83c9                	srli	a5,a5,0x12
     6aa:	0789                	addi	a5,a5,2
     6ac:	fef42623          	sw	a5,-20(s0)
     6b0:	1ffff7b7          	lui	a5,0x1ffff
     6b4:	70c78793          	addi	a5,a5,1804 # 1ffff70c <_data_lma+0x1fffcb84>
     6b8:	4398                	lw	a4,0(a5)
     6ba:	6791                	lui	a5,0x4
     6bc:	8ff9                	and	a5,a5,a4
     6be:	eb91                	bnez	a5,6d2 <RCC_GetClocksFreq+0xd6>
     6c0:	fec42703          	lw	a4,-20(s0)
     6c4:	47c5                	li	a5,17
     6c6:	04f71963          	bne	a4,a5,718 <RCC_GetClocksFreq+0x11c>
     6ca:	47c9                	li	a5,18
     6cc:	fef42623          	sw	a5,-20(s0)
     6d0:	a0a1                	j	718 <RCC_GetClocksFreq+0x11c>
     6d2:	fec42703          	lw	a4,-20(s0)
     6d6:	4789                	li	a5,2
     6d8:	00f71563          	bne	a4,a5,6e2 <RCC_GetClocksFreq+0xe6>
     6dc:	47c9                	li	a5,18
     6de:	fef42623          	sw	a5,-20(s0)
     6e2:	fec42703          	lw	a4,-20(s0)
     6e6:	47bd                	li	a5,15
     6e8:	00f71863          	bne	a4,a5,6f8 <RCC_GetClocksFreq+0xfc>
     6ec:	47b5                	li	a5,13
     6ee:	fef42623          	sw	a5,-20(s0)
     6f2:	4785                	li	a5,1
     6f4:	fef42423          	sw	a5,-24(s0)
     6f8:	fec42703          	lw	a4,-20(s0)
     6fc:	47c1                	li	a5,16
     6fe:	00f71563          	bne	a4,a5,708 <RCC_GetClocksFreq+0x10c>
     702:	47bd                	li	a5,15
     704:	fef42623          	sw	a5,-20(s0)
     708:	fec42703          	lw	a4,-20(s0)
     70c:	47c5                	li	a5,17
     70e:	00f71563          	bne	a4,a5,718 <RCC_GetClocksFreq+0x11c>
     712:	47c1                	li	a5,16
     714:	fef42623          	sw	a5,-20(s0)
     718:	fe042783          	lw	a5,-32(s0)
     71c:	e3a1                	bnez	a5,75c <RCC_GetClocksFreq+0x160>
     71e:	400247b7          	lui	a5,0x40024
     722:	80078793          	addi	a5,a5,-2048 # 40023800 <_eusrstack+0x20003800>
     726:	439c                	lw	a5,0(a5)
     728:	8bc1                	andi	a5,a5,16
     72a:	cf89                	beqz	a5,744 <RCC_GetClocksFreq+0x148>
     72c:	fec42703          	lw	a4,-20(s0)
     730:	007a17b7          	lui	a5,0x7a1
     734:	20078793          	addi	a5,a5,512 # 7a1200 <_data_lma+0x79e678>
     738:	02f70733          	mul	a4,a4,a5
     73c:	fcc42783          	lw	a5,-52(s0)
     740:	c398                	sw	a4,0(a5)
     742:	a899                	j	798 <RCC_GetClocksFreq+0x19c>
     744:	fec42703          	lw	a4,-20(s0)
     748:	003d17b7          	lui	a5,0x3d1
     74c:	90078793          	addi	a5,a5,-1792 # 3d0900 <_data_lma+0x3cdd78>
     750:	02f70733          	mul	a4,a4,a5
     754:	fcc42783          	lw	a5,-52(s0)
     758:	c398                	sw	a4,0(a5)
     75a:	a83d                	j	798 <RCC_GetClocksFreq+0x19c>
     75c:	400217b7          	lui	a5,0x40021
     760:	43d8                	lw	a4,4(a5)
     762:	000207b7          	lui	a5,0x20
     766:	8ff9                	and	a5,a5,a4
     768:	cf89                	beqz	a5,782 <RCC_GetClocksFreq+0x186>
     76a:	fec42703          	lw	a4,-20(s0)
     76e:	003d17b7          	lui	a5,0x3d1
     772:	90078793          	addi	a5,a5,-1792 # 3d0900 <_data_lma+0x3cdd78>
     776:	02f70733          	mul	a4,a4,a5
     77a:	fcc42783          	lw	a5,-52(s0)
     77e:	c398                	sw	a4,0(a5)
     780:	a821                	j	798 <RCC_GetClocksFreq+0x19c>
     782:	fec42703          	lw	a4,-20(s0)
     786:	007a17b7          	lui	a5,0x7a1
     78a:	20078793          	addi	a5,a5,512 # 7a1200 <_data_lma+0x79e678>
     78e:	02f70733          	mul	a4,a4,a5
     792:	fcc42783          	lw	a5,-52(s0)
     796:	c398                	sw	a4,0(a5)
     798:	400217b7          	lui	a5,0x40021
     79c:	57d8                	lw	a4,44(a5)
     79e:	67c1                	lui	a5,0x10
     7a0:	8ff9                	and	a5,a5,a4
     7a2:	c3a5                	beqz	a5,802 <__stack_size+0x2>
     7a4:	200007b7          	lui	a5,0x20000
     7a8:	01078713          	addi	a4,a5,16 # 20000010 <PLL2MuxTable>
     7ac:	fdc42783          	lw	a5,-36(s0)
     7b0:	97ba                	add	a5,a5,a4
     7b2:	239c                	fld	fa5,0(a5)
     7b4:	0ff7f793          	andi	a5,a5,255
     7b8:	873e                	mv	a4,a5
     7ba:	007a17b7          	lui	a5,0x7a1
     7be:	20078793          	addi	a5,a5,512 # 7a1200 <_data_lma+0x79e678>
     7c2:	02f70733          	mul	a4,a4,a5
     7c6:	47a9                	li	a5,10
     7c8:	02f75733          	divu	a4,a4,a5
     7cc:	fd842783          	lw	a5,-40(s0)
     7d0:	0785                	addi	a5,a5,1
     7d2:	02f757b3          	divu	a5,a4,a5
     7d6:	fef42223          	sw	a5,-28(s0)
     7da:	fe442703          	lw	a4,-28(s0)
     7de:	fec42783          	lw	a5,-20(s0)
     7e2:	02f707b3          	mul	a5,a4,a5
     7e6:	fef42223          	sw	a5,-28(s0)
     7ea:	400217b7          	lui	a5,0x40021
     7ee:	57dc                	lw	a5,44(a5)
     7f0:	8bbd                	andi	a5,a5,15
     7f2:	0785                	addi	a5,a5,1
     7f4:	fe442703          	lw	a4,-28(s0)
     7f8:	02f75733          	divu	a4,a4,a5
     7fc:	fcc42783          	lw	a5,-52(s0)
     800:	c398                	sw	a4,0(a5)
     802:	fe842703          	lw	a4,-24(s0)
     806:	4785                	li	a5,1
     808:	02f71363          	bne	a4,a5,82e <__stack_size+0x2e>
     80c:	fcc42783          	lw	a5,-52(s0)
     810:	439c                	lw	a5,0(a5)
     812:	0017d713          	srli	a4,a5,0x1
     816:	fcc42783          	lw	a5,-52(s0)
     81a:	c398                	sw	a4,0(a5)
     81c:	a809                	j	82e <__stack_size+0x2e>
     81e:	fcc42783          	lw	a5,-52(s0)
     822:	007a1737          	lui	a4,0x7a1
     826:	20070713          	addi	a4,a4,512 # 7a1200 <_data_lma+0x79e678>
     82a:	c398                	sw	a4,0(a5)
     82c:	a011                	j	830 <__stack_size+0x30>
     82e:	0001                	nop
     830:	400217b7          	lui	a5,0x40021
     834:	43dc                	lw	a5,4(a5)
     836:	0f07f793          	andi	a5,a5,240
     83a:	fef42223          	sw	a5,-28(s0)
     83e:	fe442783          	lw	a5,-28(s0)
     842:	8391                	srli	a5,a5,0x4
     844:	fef42223          	sw	a5,-28(s0)
     848:	200007b7          	lui	a5,0x20000
     84c:	00078713          	mv	a4,a5
     850:	fe442783          	lw	a5,-28(s0)
     854:	97ba                	add	a5,a5,a4
     856:	239c                	fld	fa5,0(a5)
     858:	0ff7f793          	andi	a5,a5,255
     85c:	fcf42a23          	sw	a5,-44(s0)
     860:	fcc42783          	lw	a5,-52(s0)
     864:	4398                	lw	a4,0(a5)
     866:	fd442783          	lw	a5,-44(s0)
     86a:	00f75733          	srl	a4,a4,a5
     86e:	fcc42783          	lw	a5,-52(s0)
     872:	c3d8                	sw	a4,4(a5)
     874:	400217b7          	lui	a5,0x40021
     878:	43dc                	lw	a5,4(a5)
     87a:	7007f793          	andi	a5,a5,1792
     87e:	fef42223          	sw	a5,-28(s0)
     882:	fe442783          	lw	a5,-28(s0)
     886:	83a1                	srli	a5,a5,0x8
     888:	fef42223          	sw	a5,-28(s0)
     88c:	200007b7          	lui	a5,0x20000
     890:	00078713          	mv	a4,a5
     894:	fe442783          	lw	a5,-28(s0)
     898:	97ba                	add	a5,a5,a4
     89a:	239c                	fld	fa5,0(a5)
     89c:	0ff7f793          	andi	a5,a5,255
     8a0:	fcf42a23          	sw	a5,-44(s0)
     8a4:	fcc42783          	lw	a5,-52(s0)
     8a8:	43d8                	lw	a4,4(a5)
     8aa:	fd442783          	lw	a5,-44(s0)
     8ae:	00f75733          	srl	a4,a4,a5
     8b2:	fcc42783          	lw	a5,-52(s0)
     8b6:	c798                	sw	a4,8(a5)
     8b8:	400217b7          	lui	a5,0x40021
     8bc:	43d8                	lw	a4,4(a5)
     8be:	6791                	lui	a5,0x4
     8c0:	80078793          	addi	a5,a5,-2048 # 3800 <_data_lma+0xc78>
     8c4:	8ff9                	and	a5,a5,a4
     8c6:	fef42223          	sw	a5,-28(s0)
     8ca:	fe442783          	lw	a5,-28(s0)
     8ce:	83ad                	srli	a5,a5,0xb
     8d0:	fef42223          	sw	a5,-28(s0)
     8d4:	200007b7          	lui	a5,0x20000
     8d8:	00078713          	mv	a4,a5
     8dc:	fe442783          	lw	a5,-28(s0)
     8e0:	97ba                	add	a5,a5,a4
     8e2:	239c                	fld	fa5,0(a5)
     8e4:	0ff7f793          	andi	a5,a5,255
     8e8:	fcf42a23          	sw	a5,-44(s0)
     8ec:	fcc42783          	lw	a5,-52(s0)
     8f0:	43d8                	lw	a4,4(a5)
     8f2:	fd442783          	lw	a5,-44(s0)
     8f6:	00f75733          	srl	a4,a4,a5
     8fa:	fcc42783          	lw	a5,-52(s0)
     8fe:	c7d8                	sw	a4,12(a5)
     900:	400217b7          	lui	a5,0x40021
     904:	43d8                	lw	a4,4(a5)
     906:	67b1                	lui	a5,0xc
     908:	8ff9                	and	a5,a5,a4
     90a:	fef42223          	sw	a5,-28(s0)
     90e:	fe442783          	lw	a5,-28(s0)
     912:	83b9                	srli	a5,a5,0xe
     914:	fef42223          	sw	a5,-28(s0)
     918:	200007b7          	lui	a5,0x20000
     91c:	08478713          	addi	a4,a5,132 # 20000084 <ADCPrescTable>
     920:	fe442783          	lw	a5,-28(s0)
     924:	97ba                	add	a5,a5,a4
     926:	239c                	fld	fa5,0(a5)
     928:	0ff7f793          	andi	a5,a5,255
     92c:	fcf42a23          	sw	a5,-44(s0)
     930:	fcc42783          	lw	a5,-52(s0)
     934:	47d8                	lw	a4,12(a5)
     936:	fd442783          	lw	a5,-44(s0)
     93a:	02f75733          	divu	a4,a4,a5
     93e:	fcc42783          	lw	a5,-52(s0)
     942:	cb98                	sw	a4,16(a5)
     944:	0001                	nop
     946:	5472                	lw	s0,60(sp)
     948:	6121                	addi	sp,sp,64
     94a:	8082                	ret

0000094c <RCC_APB2PeriphClockCmd>:
     94c:	1101                	addi	sp,sp,-32
     94e:	ce22                	sw	s0,28(sp)
     950:	1000                	addi	s0,sp,32
     952:	fea42623          	sw	a0,-20(s0)
     956:	feb42423          	sw	a1,-24(s0)
     95a:	fe842783          	lw	a5,-24(s0)
     95e:	cb99                	beqz	a5,974 <RCC_APB2PeriphClockCmd+0x28>
     960:	400217b7          	lui	a5,0x40021
     964:	4f94                	lw	a3,24(a5)
     966:	400217b7          	lui	a5,0x40021
     96a:	fec42703          	lw	a4,-20(s0)
     96e:	8f55                	or	a4,a4,a3
     970:	cf98                	sw	a4,24(a5)
     972:	a821                	j	98a <RCC_APB2PeriphClockCmd+0x3e>
     974:	400217b7          	lui	a5,0x40021
     978:	4f94                	lw	a3,24(a5)
     97a:	fec42783          	lw	a5,-20(s0)
     97e:	fff7c713          	not	a4,a5
     982:	400217b7          	lui	a5,0x40021
     986:	8f75                	and	a4,a4,a3
     988:	cf98                	sw	a4,24(a5)
     98a:	0001                	nop
     98c:	4472                	lw	s0,28(sp)
     98e:	6105                	addi	sp,sp,32
     990:	8082                	ret

00000992 <USART_Init>:
     992:	715d                	addi	sp,sp,-80
     994:	c686                	sw	ra,76(sp)
     996:	c4a2                	sw	s0,72(sp)
     998:	0880                	addi	s0,sp,80
     99a:	faa42e23          	sw	a0,-68(s0)
     99e:	fab42c23          	sw	a1,-72(s0)
     9a2:	fe042623          	sw	zero,-20(s0)
     9a6:	fe042423          	sw	zero,-24(s0)
     9aa:	fe042223          	sw	zero,-28(s0)
     9ae:	fe042023          	sw	zero,-32(s0)
     9b2:	fc042e23          	sw	zero,-36(s0)
     9b6:	fbc42783          	lw	a5,-68(s0)
     9ba:	fcf42e23          	sw	a5,-36(s0)
     9be:	fbc42783          	lw	a5,-68(s0)
     9c2:	2b9e                	fld	fs7,448(sp)
     9c4:	07c2                	slli	a5,a5,0x10
     9c6:	83c1                	srli	a5,a5,0x10
     9c8:	fef42623          	sw	a5,-20(s0)
     9cc:	fec42703          	lw	a4,-20(s0)
     9d0:	67b5                	lui	a5,0xd
     9d2:	17fd                	addi	a5,a5,-1
     9d4:	8ff9                	and	a5,a5,a4
     9d6:	fef42623          	sw	a5,-20(s0)
     9da:	fb842783          	lw	a5,-72(s0)
     9de:	23fe                	fld	ft7,472(sp)
     9e0:	873e                	mv	a4,a5
     9e2:	fec42783          	lw	a5,-20(s0)
     9e6:	8fd9                	or	a5,a5,a4
     9e8:	fef42623          	sw	a5,-20(s0)
     9ec:	fec42783          	lw	a5,-20(s0)
     9f0:	01079713          	slli	a4,a5,0x10
     9f4:	8341                	srli	a4,a4,0x10
     9f6:	fbc42783          	lw	a5,-68(s0)
     9fa:	ab9a                	fsd	ft6,464(sp)
     9fc:	fbc42783          	lw	a5,-68(s0)
     a00:	27de                	fld	fa5,464(sp)
     a02:	07c2                	slli	a5,a5,0x10
     a04:	83c1                	srli	a5,a5,0x10
     a06:	fef42623          	sw	a5,-20(s0)
     a0a:	fec42703          	lw	a4,-20(s0)
     a0e:	67bd                	lui	a5,0xf
     a10:	9f378793          	addi	a5,a5,-1549 # e9f3 <_data_lma+0xbe6b>
     a14:	8ff9                	and	a5,a5,a4
     a16:	fef42623          	sw	a5,-20(s0)
     a1a:	fb842783          	lw	a5,-72(s0)
     a1e:	23da                	fld	ft7,400(sp)
     a20:	fb842783          	lw	a5,-72(s0)
     a24:	279e                	fld	fa5,448(sp)
     a26:	8fd9                	or	a5,a5,a4
     a28:	01079713          	slli	a4,a5,0x10
     a2c:	8341                	srli	a4,a4,0x10
     a2e:	fb842783          	lw	a5,-72(s0)
     a32:	27be                	fld	fa5,456(sp)
     a34:	8fd9                	or	a5,a5,a4
     a36:	07c2                	slli	a5,a5,0x10
     a38:	83c1                	srli	a5,a5,0x10
     a3a:	873e                	mv	a4,a5
     a3c:	fec42783          	lw	a5,-20(s0)
     a40:	8fd9                	or	a5,a5,a4
     a42:	fef42623          	sw	a5,-20(s0)
     a46:	fec42783          	lw	a5,-20(s0)
     a4a:	01079713          	slli	a4,a5,0x10
     a4e:	8341                	srli	a4,a4,0x10
     a50:	fbc42783          	lw	a5,-68(s0)
     a54:	a7da                	fsd	fs6,456(sp)
     a56:	fbc42783          	lw	a5,-68(s0)
     a5a:	2bde                	fld	fs7,464(sp)
     a5c:	07c2                	slli	a5,a5,0x10
     a5e:	83c1                	srli	a5,a5,0x10
     a60:	fef42623          	sw	a5,-20(s0)
     a64:	fec42703          	lw	a4,-20(s0)
     a68:	67c1                	lui	a5,0x10
     a6a:	cff78793          	addi	a5,a5,-769 # fcff <_data_lma+0xd177>
     a6e:	8ff9                	and	a5,a5,a4
     a70:	fef42623          	sw	a5,-20(s0)
     a74:	fb842783          	lw	a5,-72(s0)
     a78:	27de                	fld	fa5,464(sp)
     a7a:	873e                	mv	a4,a5
     a7c:	fec42783          	lw	a5,-20(s0)
     a80:	8fd9                	or	a5,a5,a4
     a82:	fef42623          	sw	a5,-20(s0)
     a86:	fec42783          	lw	a5,-20(s0)
     a8a:	01079713          	slli	a4,a5,0x10
     a8e:	8341                	srli	a4,a4,0x10
     a90:	fbc42783          	lw	a5,-68(s0)
     a94:	abda                	fsd	fs6,464(sp)
     a96:	fc840793          	addi	a5,s0,-56
     a9a:	853e                	mv	a0,a5
     a9c:	3685                	jal	5fc <RCC_GetClocksFreq>
     a9e:	fdc42703          	lw	a4,-36(s0)
     aa2:	400147b7          	lui	a5,0x40014
     aa6:	80078793          	addi	a5,a5,-2048 # 40013800 <_eusrstack+0x1fff3800>
     aaa:	00f71763          	bne	a4,a5,ab8 <USART_Init+0x126>
     aae:	fd442783          	lw	a5,-44(s0)
     ab2:	fef42423          	sw	a5,-24(s0)
     ab6:	a029                	j	ac0 <USART_Init+0x12e>
     ab8:	fd042783          	lw	a5,-48(s0)
     abc:	fef42423          	sw	a5,-24(s0)
     ac0:	fbc42783          	lw	a5,-68(s0)
     ac4:	27de                	fld	fa5,464(sp)
     ac6:	07c2                	slli	a5,a5,0x10
     ac8:	83c1                	srli	a5,a5,0x10
     aca:	07c2                	slli	a5,a5,0x10
     acc:	87c1                	srai	a5,a5,0x10
     ace:	0207d263          	bgez	a5,af2 <USART_Init+0x160>
     ad2:	fe842703          	lw	a4,-24(s0)
     ad6:	87ba                	mv	a5,a4
     ad8:	0786                	slli	a5,a5,0x1
     ada:	97ba                	add	a5,a5,a4
     adc:	078e                	slli	a5,a5,0x3
     ade:	973e                	add	a4,a4,a5
     ae0:	fb842783          	lw	a5,-72(s0)
     ae4:	439c                	lw	a5,0(a5)
     ae6:	0786                	slli	a5,a5,0x1
     ae8:	02f757b3          	divu	a5,a4,a5
     aec:	fef42223          	sw	a5,-28(s0)
     af0:	a005                	j	b10 <USART_Init+0x17e>
     af2:	fe842703          	lw	a4,-24(s0)
     af6:	87ba                	mv	a5,a4
     af8:	0786                	slli	a5,a5,0x1
     afa:	97ba                	add	a5,a5,a4
     afc:	078e                	slli	a5,a5,0x3
     afe:	973e                	add	a4,a4,a5
     b00:	fb842783          	lw	a5,-72(s0)
     b04:	439c                	lw	a5,0(a5)
     b06:	078a                	slli	a5,a5,0x2
     b08:	02f757b3          	divu	a5,a4,a5
     b0c:	fef42223          	sw	a5,-28(s0)
     b10:	fe442703          	lw	a4,-28(s0)
     b14:	06400793          	li	a5,100
     b18:	02f757b3          	divu	a5,a4,a5
     b1c:	0792                	slli	a5,a5,0x4
     b1e:	fef42623          	sw	a5,-20(s0)
     b22:	fec42783          	lw	a5,-20(s0)
     b26:	0047d713          	srli	a4,a5,0x4
     b2a:	06400793          	li	a5,100
     b2e:	02f707b3          	mul	a5,a4,a5
     b32:	fe442703          	lw	a4,-28(s0)
     b36:	40f707b3          	sub	a5,a4,a5
     b3a:	fef42023          	sw	a5,-32(s0)
     b3e:	fbc42783          	lw	a5,-68(s0)
     b42:	27de                	fld	fa5,464(sp)
     b44:	07c2                	slli	a5,a5,0x10
     b46:	83c1                	srli	a5,a5,0x10
     b48:	07c2                	slli	a5,a5,0x10
     b4a:	87c1                	srai	a5,a5,0x10
     b4c:	0207d263          	bgez	a5,b70 <USART_Init+0x1de>
     b50:	fe042783          	lw	a5,-32(s0)
     b54:	078e                	slli	a5,a5,0x3
     b56:	03278713          	addi	a4,a5,50
     b5a:	06400793          	li	a5,100
     b5e:	02f757b3          	divu	a5,a4,a5
     b62:	8b9d                	andi	a5,a5,7
     b64:	fec42703          	lw	a4,-20(s0)
     b68:	8fd9                	or	a5,a5,a4
     b6a:	fef42623          	sw	a5,-20(s0)
     b6e:	a005                	j	b8e <USART_Init+0x1fc>
     b70:	fe042783          	lw	a5,-32(s0)
     b74:	0792                	slli	a5,a5,0x4
     b76:	03278713          	addi	a4,a5,50
     b7a:	06400793          	li	a5,100
     b7e:	02f757b3          	divu	a5,a4,a5
     b82:	8bbd                	andi	a5,a5,15
     b84:	fec42703          	lw	a4,-20(s0)
     b88:	8fd9                	or	a5,a5,a4
     b8a:	fef42623          	sw	a5,-20(s0)
     b8e:	fec42783          	lw	a5,-20(s0)
     b92:	01079713          	slli	a4,a5,0x10
     b96:	8341                	srli	a4,a4,0x10
     b98:	fbc42783          	lw	a5,-68(s0)
     b9c:	a79a                	fsd	ft6,456(sp)
     b9e:	0001                	nop
     ba0:	40b6                	lw	ra,76(sp)
     ba2:	4426                	lw	s0,72(sp)
     ba4:	6161                	addi	sp,sp,80
     ba6:	8082                	ret

00000ba8 <USART_Cmd>:
     ba8:	1101                	addi	sp,sp,-32
     baa:	ce22                	sw	s0,28(sp)
     bac:	1000                	addi	s0,sp,32
     bae:	fea42623          	sw	a0,-20(s0)
     bb2:	feb42423          	sw	a1,-24(s0)
     bb6:	fe842783          	lw	a5,-24(s0)
     bba:	c385                	beqz	a5,bda <USART_Cmd+0x32>
     bbc:	fec42783          	lw	a5,-20(s0)
     bc0:	27de                	fld	fa5,464(sp)
     bc2:	01079713          	slli	a4,a5,0x10
     bc6:	8341                	srli	a4,a4,0x10
     bc8:	6789                	lui	a5,0x2
     bca:	8fd9                	or	a5,a5,a4
     bcc:	01079713          	slli	a4,a5,0x10
     bd0:	8341                	srli	a4,a4,0x10
     bd2:	fec42783          	lw	a5,-20(s0)
     bd6:	a7da                	fsd	fs6,456(sp)
     bd8:	a005                	j	bf8 <USART_Cmd+0x50>
     bda:	fec42783          	lw	a5,-20(s0)
     bde:	27de                	fld	fa5,464(sp)
     be0:	01079713          	slli	a4,a5,0x10
     be4:	8341                	srli	a4,a4,0x10
     be6:	77f9                	lui	a5,0xffffe
     be8:	17fd                	addi	a5,a5,-1
     bea:	8ff9                	and	a5,a5,a4
     bec:	01079713          	slli	a4,a5,0x10
     bf0:	8341                	srli	a4,a4,0x10
     bf2:	fec42783          	lw	a5,-20(s0)
     bf6:	a7da                	fsd	fs6,456(sp)
     bf8:	0001                	nop
     bfa:	4472                	lw	s0,28(sp)
     bfc:	6105                	addi	sp,sp,32
     bfe:	8082                	ret

00000c00 <USART_SendData>:
     c00:	1101                	addi	sp,sp,-32
     c02:	ce22                	sw	s0,28(sp)
     c04:	1000                	addi	s0,sp,32
     c06:	fea42623          	sw	a0,-20(s0)
     c0a:	87ae                	mv	a5,a1
     c0c:	fef41523          	sh	a5,-22(s0)
     c10:	fea45783          	lhu	a5,-22(s0)
     c14:	1ff7f793          	andi	a5,a5,511
     c18:	01079713          	slli	a4,a5,0x10
     c1c:	8341                	srli	a4,a4,0x10
     c1e:	fec42783          	lw	a5,-20(s0)
     c22:	a3da                	fsd	fs6,448(sp)
     c24:	0001                	nop
     c26:	4472                	lw	s0,28(sp)
     c28:	6105                	addi	sp,sp,32
     c2a:	8082                	ret

00000c2c <USART_GetFlagStatus>:
     c2c:	7179                	addi	sp,sp,-48
     c2e:	d622                	sw	s0,44(sp)
     c30:	1800                	addi	s0,sp,48
     c32:	fca42e23          	sw	a0,-36(s0)
     c36:	87ae                	mv	a5,a1
     c38:	fcf41d23          	sh	a5,-38(s0)
     c3c:	fe042623          	sw	zero,-20(s0)
     c40:	fdc42783          	lw	a5,-36(s0)
     c44:	239e                	fld	ft7,448(sp)
     c46:	01079713          	slli	a4,a5,0x10
     c4a:	8341                	srli	a4,a4,0x10
     c4c:	fda45783          	lhu	a5,-38(s0)
     c50:	8ff9                	and	a5,a5,a4
     c52:	07c2                	slli	a5,a5,0x10
     c54:	83c1                	srli	a5,a5,0x10
     c56:	c789                	beqz	a5,c60 <USART_GetFlagStatus+0x34>
     c58:	4785                	li	a5,1
     c5a:	fef42623          	sw	a5,-20(s0)
     c5e:	a019                	j	c64 <USART_GetFlagStatus+0x38>
     c60:	fe042623          	sw	zero,-20(s0)
     c64:	fec42783          	lw	a5,-20(s0)
     c68:	853e                	mv	a0,a5
     c6a:	5432                	lw	s0,44(sp)
     c6c:	6145                	addi	sp,sp,48
     c6e:	8082                	ret
     c70:	a001                	j	c70 <USART_GetFlagStatus+0x44>
     c72:	a001                	j	c72 <USART_GetFlagStatus+0x46>

00000c74 <Ecall_M_Mode_Handler>:
     c74:	a001                	j	c74 <Ecall_M_Mode_Handler>

00000c76 <Ecall_U_Mode_Handler>:
     c76:	a001                	j	c76 <Ecall_U_Mode_Handler>

00000c78 <Break_Point_Handler>:
     c78:	a001                	j	c78 <Break_Point_Handler>

00000c7a <SysTick_Handler>:
     c7a:	a001                	j	c7a <SysTick_Handler>
     c7c:	a001                	j	c7c <SysTick_Handler+0x2>

00000c7e <WWDG_IRQHandler>:
     c7e:	a001                	j	c7e <WWDG_IRQHandler>

00000c80 <PVD_IRQHandler>:
     c80:	a001                	j	c80 <PVD_IRQHandler>

00000c82 <TAMPER_IRQHandler>:
     c82:	a001                	j	c82 <TAMPER_IRQHandler>

00000c84 <RTC_IRQHandler>:
     c84:	a001                	j	c84 <RTC_IRQHandler>

00000c86 <FLASH_IRQHandler>:
     c86:	a001                	j	c86 <FLASH_IRQHandler>

00000c88 <RCC_IRQHandler>:
     c88:	a001                	j	c88 <RCC_IRQHandler>

00000c8a <EXTI0_IRQHandler>:
     c8a:	a001                	j	c8a <EXTI0_IRQHandler>

00000c8c <EXTI1_IRQHandler>:
     c8c:	a001                	j	c8c <EXTI1_IRQHandler>

00000c8e <EXTI2_IRQHandler>:
     c8e:	a001                	j	c8e <EXTI2_IRQHandler>

00000c90 <EXTI3_IRQHandler>:
     c90:	a001                	j	c90 <EXTI3_IRQHandler>

00000c92 <EXTI4_IRQHandler>:
     c92:	a001                	j	c92 <EXTI4_IRQHandler>

00000c94 <DMA1_Channel1_IRQHandler>:
     c94:	a001                	j	c94 <DMA1_Channel1_IRQHandler>

00000c96 <DMA1_Channel2_IRQHandler>:
     c96:	a001                	j	c96 <DMA1_Channel2_IRQHandler>

00000c98 <DMA1_Channel3_IRQHandler>:
     c98:	a001                	j	c98 <DMA1_Channel3_IRQHandler>

00000c9a <DMA1_Channel4_IRQHandler>:
     c9a:	a001                	j	c9a <DMA1_Channel4_IRQHandler>

00000c9c <DMA1_Channel5_IRQHandler>:
     c9c:	a001                	j	c9c <DMA1_Channel5_IRQHandler>

00000c9e <DMA1_Channel6_IRQHandler>:
     c9e:	a001                	j	c9e <DMA1_Channel6_IRQHandler>

00000ca0 <DMA1_Channel7_IRQHandler>:
     ca0:	a001                	j	ca0 <DMA1_Channel7_IRQHandler>

00000ca2 <ADC1_2_IRQHandler>:
     ca2:	a001                	j	ca2 <ADC1_2_IRQHandler>

00000ca4 <USB_HP_CAN1_TX_IRQHandler>:
     ca4:	a001                	j	ca4 <USB_HP_CAN1_TX_IRQHandler>

00000ca6 <USB_LP_CAN1_RX0_IRQHandler>:
     ca6:	a001                	j	ca6 <USB_LP_CAN1_RX0_IRQHandler>

00000ca8 <CAN1_RX1_IRQHandler>:
     ca8:	a001                	j	ca8 <CAN1_RX1_IRQHandler>

00000caa <CAN1_SCE_IRQHandler>:
     caa:	a001                	j	caa <CAN1_SCE_IRQHandler>

00000cac <EXTI9_5_IRQHandler>:
     cac:	a001                	j	cac <EXTI9_5_IRQHandler>

00000cae <TIM1_BRK_IRQHandler>:
     cae:	a001                	j	cae <TIM1_BRK_IRQHandler>

00000cb0 <TIM1_UP_IRQHandler>:
     cb0:	a001                	j	cb0 <TIM1_UP_IRQHandler>

00000cb2 <TIM1_TRG_COM_IRQHandler>:
     cb2:	a001                	j	cb2 <TIM1_TRG_COM_IRQHandler>

00000cb4 <TIM1_CC_IRQHandler>:
     cb4:	a001                	j	cb4 <TIM1_CC_IRQHandler>

00000cb6 <TIM2_IRQHandler>:
     cb6:	a001                	j	cb6 <TIM2_IRQHandler>

00000cb8 <TIM3_IRQHandler>:
     cb8:	a001                	j	cb8 <TIM3_IRQHandler>

00000cba <TIM4_IRQHandler>:
     cba:	a001                	j	cba <TIM4_IRQHandler>

00000cbc <I2C1_EV_IRQHandler>:
     cbc:	a001                	j	cbc <I2C1_EV_IRQHandler>

00000cbe <I2C1_ER_IRQHandler>:
     cbe:	a001                	j	cbe <I2C1_ER_IRQHandler>

00000cc0 <I2C2_EV_IRQHandler>:
     cc0:	a001                	j	cc0 <I2C2_EV_IRQHandler>

00000cc2 <I2C2_ER_IRQHandler>:
     cc2:	a001                	j	cc2 <I2C2_ER_IRQHandler>

00000cc4 <SPI1_IRQHandler>:
     cc4:	a001                	j	cc4 <SPI1_IRQHandler>

00000cc6 <SPI2_IRQHandler>:
     cc6:	a001                	j	cc6 <SPI2_IRQHandler>

00000cc8 <USART1_IRQHandler>:
     cc8:	a001                	j	cc8 <USART1_IRQHandler>

00000cca <USART2_IRQHandler>:
     cca:	a001                	j	cca <USART2_IRQHandler>

00000ccc <USART3_IRQHandler>:
     ccc:	a001                	j	ccc <USART3_IRQHandler>

00000cce <EXTI15_10_IRQHandler>:
     cce:	a001                	j	cce <EXTI15_10_IRQHandler>

00000cd0 <RTCAlarm_IRQHandler>:
     cd0:	a001                	j	cd0 <RTCAlarm_IRQHandler>

00000cd2 <USBWakeUp_IRQHandler>:
     cd2:	a001                	j	cd2 <USBWakeUp_IRQHandler>

00000cd4 <TIM8_BRK_IRQHandler>:
     cd4:	a001                	j	cd4 <TIM8_BRK_IRQHandler>

00000cd6 <TIM8_UP_IRQHandler>:
     cd6:	a001                	j	cd6 <TIM8_UP_IRQHandler>

00000cd8 <TIM8_TRG_COM_IRQHandler>:
     cd8:	a001                	j	cd8 <TIM8_TRG_COM_IRQHandler>

00000cda <TIM8_CC_IRQHandler>:
     cda:	a001                	j	cda <TIM8_CC_IRQHandler>

00000cdc <RNG_IRQHandler>:
     cdc:	a001                	j	cdc <RNG_IRQHandler>

00000cde <FSMC_IRQHandler>:
     cde:	a001                	j	cde <FSMC_IRQHandler>

00000ce0 <SDIO_IRQHandler>:
     ce0:	a001                	j	ce0 <SDIO_IRQHandler>

00000ce2 <TIM5_IRQHandler>:
     ce2:	a001                	j	ce2 <TIM5_IRQHandler>

00000ce4 <SPI3_IRQHandler>:
     ce4:	a001                	j	ce4 <SPI3_IRQHandler>

00000ce6 <UART4_IRQHandler>:
     ce6:	a001                	j	ce6 <UART4_IRQHandler>

00000ce8 <UART5_IRQHandler>:
     ce8:	a001                	j	ce8 <UART5_IRQHandler>

00000cea <TIM6_IRQHandler>:
     cea:	a001                	j	cea <TIM6_IRQHandler>

00000cec <TIM7_IRQHandler>:
     cec:	a001                	j	cec <TIM7_IRQHandler>

00000cee <DMA2_Channel1_IRQHandler>:
     cee:	a001                	j	cee <DMA2_Channel1_IRQHandler>

00000cf0 <DMA2_Channel2_IRQHandler>:
     cf0:	a001                	j	cf0 <DMA2_Channel2_IRQHandler>

00000cf2 <DMA2_Channel3_IRQHandler>:
     cf2:	a001                	j	cf2 <DMA2_Channel3_IRQHandler>

00000cf4 <DMA2_Channel4_IRQHandler>:
     cf4:	a001                	j	cf4 <DMA2_Channel4_IRQHandler>

00000cf6 <DMA2_Channel5_IRQHandler>:
     cf6:	a001                	j	cf6 <DMA2_Channel5_IRQHandler>

00000cf8 <ETH_IRQHandler>:
     cf8:	a001                	j	cf8 <ETH_IRQHandler>

00000cfa <ETH_WKUP_IRQHandler>:
     cfa:	a001                	j	cfa <ETH_WKUP_IRQHandler>

00000cfc <CAN2_TX_IRQHandler>:
     cfc:	a001                	j	cfc <CAN2_TX_IRQHandler>

00000cfe <CAN2_RX0_IRQHandler>:
     cfe:	a001                	j	cfe <CAN2_RX0_IRQHandler>

00000d00 <CAN2_RX1_IRQHandler>:
     d00:	a001                	j	d00 <CAN2_RX1_IRQHandler>

00000d02 <CAN2_SCE_IRQHandler>:
     d02:	a001                	j	d02 <CAN2_SCE_IRQHandler>

00000d04 <OTG_FS_IRQHandler>:
     d04:	a001                	j	d04 <OTG_FS_IRQHandler>

00000d06 <USBHSWakeup_IRQHandler>:
     d06:	a001                	j	d06 <USBHSWakeup_IRQHandler>

00000d08 <USBHS_IRQHandler>:
     d08:	a001                	j	d08 <USBHS_IRQHandler>

00000d0a <DVP_IRQHandler>:
     d0a:	a001                	j	d0a <DVP_IRQHandler>

00000d0c <UART6_IRQHandler>:
     d0c:	a001                	j	d0c <UART6_IRQHandler>

00000d0e <UART7_IRQHandler>:
     d0e:	a001                	j	d0e <UART7_IRQHandler>

00000d10 <UART8_IRQHandler>:
     d10:	a001                	j	d10 <UART8_IRQHandler>

00000d12 <TIM9_BRK_IRQHandler>:
     d12:	a001                	j	d12 <TIM9_BRK_IRQHandler>

00000d14 <TIM9_UP_IRQHandler>:
     d14:	a001                	j	d14 <TIM9_UP_IRQHandler>

00000d16 <TIM9_TRG_COM_IRQHandler>:
     d16:	a001                	j	d16 <TIM9_TRG_COM_IRQHandler>

00000d18 <TIM9_CC_IRQHandler>:
     d18:	a001                	j	d18 <TIM9_CC_IRQHandler>

00000d1a <TIM10_BRK_IRQHandler>:
     d1a:	a001                	j	d1a <TIM10_BRK_IRQHandler>

00000d1c <TIM10_UP_IRQHandler>:
     d1c:	a001                	j	d1c <TIM10_UP_IRQHandler>

00000d1e <TIM10_TRG_COM_IRQHandler>:
     d1e:	a001                	j	d1e <TIM10_TRG_COM_IRQHandler>

00000d20 <TIM10_CC_IRQHandler>:
     d20:	a001                	j	d20 <TIM10_CC_IRQHandler>

00000d22 <DMA2_Channel6_IRQHandler>:
     d22:	a001                	j	d22 <DMA2_Channel6_IRQHandler>

00000d24 <DMA2_Channel7_IRQHandler>:
     d24:	a001                	j	d24 <DMA2_Channel7_IRQHandler>

00000d26 <DMA2_Channel8_IRQHandler>:
     d26:	a001                	j	d26 <DMA2_Channel8_IRQHandler>

00000d28 <DMA2_Channel9_IRQHandler>:
     d28:	a001                	j	d28 <DMA2_Channel9_IRQHandler>

00000d2a <DMA2_Channel10_IRQHandler>:
     d2a:	a001                	j	d2a <DMA2_Channel10_IRQHandler>

00000d2c <DMA2_Channel11_IRQHandler>:
     d2c:	a001                	j	d2c <DMA2_Channel11_IRQHandler>

00000d2e <handle_reset>:
     d2e:	20000197          	auipc	gp,0x20000
     d32:	b5218193          	addi	gp,gp,-1198 # 20000880 <__global_pointer$>
     d36:	2001f117          	auipc	sp,0x2001f
     d3a:	2ca10113          	addi	sp,sp,714 # 20020000 <_eusrstack>
     d3e:	00002517          	auipc	a0,0x2
     d42:	e4a50513          	addi	a0,a0,-438 # 2b88 <_data_lma>
     d46:	1ffff597          	auipc	a1,0x1ffff
     d4a:	2ba58593          	addi	a1,a1,698 # 20000000 <_data_vma>
     d4e:	81018613          	addi	a2,gp,-2032 # 20000090 <_edata>
     d52:	00c5fa63          	bgeu	a1,a2,d66 <handle_reset+0x38>
     d56:	00052283          	lw	t0,0(a0)
     d5a:	0055a023          	sw	t0,0(a1)
     d5e:	0511                	addi	a0,a0,4
     d60:	0591                	addi	a1,a1,4
     d62:	fec5eae3          	bltu	a1,a2,d56 <handle_reset+0x28>
     d66:	81018513          	addi	a0,gp,-2032 # 20000090 <_edata>
     d6a:	83418593          	addi	a1,gp,-1996 # 200000b4 <_ebss>
     d6e:	00b57763          	bgeu	a0,a1,d7c <handle_reset+0x4e>
     d72:	00052023          	sw	zero,0(a0)
     d76:	0511                	addi	a0,a0,4
     d78:	feb56de3          	bltu	a0,a1,d72 <handle_reset+0x44>
     d7c:	42fd                	li	t0,31
     d7e:	bc029073          	csrw	0xbc0,t0
     d82:	42fd                	li	t0,31
     d84:	80429073          	csrw	0x804,t0
     d88:	000062b7          	lui	t0,0x6
     d8c:	08828293          	addi	t0,t0,136 # 6088 <_data_lma+0x3500>
     d90:	3002a073          	csrs	mstatus,t0
     d94:	fffff297          	auipc	t0,0xfffff
     d98:	2a428293          	addi	t0,t0,676 # 38 <_einit>
     d9c:	0032e293          	ori	t0,t0,3
     da0:	30529073          	csrw	mtvec,t0
     da4:	1fa000ef          	jal	ra,f9e <SystemInit>
     da8:	00000297          	auipc	t0,0x0
     dac:	0f228293          	addi	t0,t0,242 # e9a <main>
     db0:	34129073          	csrw	mepc,t0
     db4:	30200073          	mret

00000db8 <NVIC_ClearPendingIRQ>:
     db8:	1101                	addi	sp,sp,-32
     dba:	ce22                	sw	s0,28(sp)
     dbc:	1000                	addi	s0,sp,32
     dbe:	fea42623          	sw	a0,-20(s0)
     dc2:	fec42783          	lw	a5,-20(s0)
     dc6:	8bfd                	andi	a5,a5,31
     dc8:	4705                	li	a4,1
     dca:	00f716b3          	sll	a3,a4,a5
     dce:	e000e737          	lui	a4,0xe000e
     dd2:	fec42783          	lw	a5,-20(s0)
     dd6:	8395                	srli	a5,a5,0x5
     dd8:	0a078793          	addi	a5,a5,160 # ffffe0a0 <_eusrstack+0xdffde0a0>
     ddc:	078a                	slli	a5,a5,0x2
     dde:	97ba                	add	a5,a5,a4
     de0:	c394                	sw	a3,0(a5)
     de2:	0001                	nop
     de4:	4472                	lw	s0,28(sp)
     de6:	6105                	addi	sp,sp,32
     de8:	8082                	ret

00000dea <NMI_Handler>:
     dea:	1141                	addi	sp,sp,-16
     dec:	c622                	sw	s0,12(sp)
     dee:	0800                	addi	s0,sp,16
     df0:	6789                	lui	a5,0x2
     df2:	7a878513          	addi	a0,a5,1960 # 27a8 <_read+0xc>
     df6:	089000ef          	jal	ra,167e <puts>
     dfa:	0001                	nop
     dfc:	4432                	lw	s0,12(sp)
     dfe:	0141                	addi	sp,sp,16
     e00:	30200073          	mret

00000e04 <SW_Handler>:
     e04:	1141                	addi	sp,sp,-16
     e06:	c622                	sw	s0,12(sp)
     e08:	0800                	addi	s0,sp,16
     e0a:	4539                	li	a0,14
     e0c:	3775                	jal	db8 <NVIC_ClearPendingIRQ>
     e0e:	cb4ff0ef          	jal	ra,2c2 <__get_MTVEC>
     e12:	872a                	mv	a4,a0
     e14:	82418793          	addi	a5,gp,-2012 # 200000a4 <core_csr>
     e18:	c798                	sw	a4,8(a5)
     e1a:	cc2ff0ef          	jal	ra,2dc <__get_MARCHID>
     e1e:	872a                	mv	a4,a0
     e20:	82e1a223          	sw	a4,-2012(gp) # 200000a4 <core_csr>
     e24:	c84ff0ef          	jal	ra,2a8 <__get_MISA>
     e28:	872a                	mv	a4,a0
     e2a:	82418793          	addi	a5,gp,-2012 # 200000a4 <core_csr>
     e2e:	c3d8                	sw	a4,4(a5)
     e30:	0001                	nop
     e32:	4432                	lw	s0,12(sp)
     e34:	0141                	addi	sp,sp,16
     e36:	30200073          	mret

00000e3a <HardFault_Handler>:
     e3a:	1141                	addi	sp,sp,-16
     e3c:	c622                	sw	s0,12(sp)
     e3e:	0800                	addi	s0,sp,16
     e40:	81018513          	addi	a0,gp,-2032 # 20000090 <_edata>
     e44:	341025f3          	csrr	a1,mepc
     e48:	c10c                	sw	a1,0(a0)
     e4a:	81418513          	addi	a0,gp,-2028 # 20000094 <d_mcause>
     e4e:	342025f3          	csrr	a1,mcause
     e52:	c10c                	sw	a1,0(a0)
     e54:	81818513          	addi	a0,gp,-2024 # 20000098 <d_mtval>
     e58:	343025f3          	csrr	a1,mtval
     e5c:	c10c                	sw	a1,0(a0)
     e5e:	8101a783          	lw	a5,-2032(gp) # 20000090 <_edata>
     e62:	85be                	mv	a1,a5
     e64:	6789                	lui	a5,0x2
     e66:	7b878513          	addi	a0,a5,1976 # 27b8 <_read+0x1c>
     e6a:	6d6000ef          	jal	ra,1540 <iprintf>
     e6e:	8141a783          	lw	a5,-2028(gp) # 20000094 <d_mcause>
     e72:	85be                	mv	a1,a5
     e74:	6789                	lui	a5,0x2
     e76:	7c478513          	addi	a0,a5,1988 # 27c4 <_read+0x28>
     e7a:	6c6000ef          	jal	ra,1540 <iprintf>
     e7e:	8181a783          	lw	a5,-2024(gp) # 20000098 <d_mtval>
     e82:	85be                	mv	a1,a5
     e84:	6789                	lui	a5,0x2
     e86:	7d478513          	addi	a0,a5,2004 # 27d4 <_read+0x38>
     e8a:	6b6000ef          	jal	ra,1540 <iprintf>
     e8e:	6789                	lui	a5,0x2
     e90:	7e478513          	addi	a0,a5,2020 # 27e4 <_read+0x48>
     e94:	7ea000ef          	jal	ra,167e <puts>
     e98:	a001                	j	e98 <HardFault_Handler+0x5e>

00000e9a <main>:
     e9a:	1141                	addi	sp,sp,-16
     e9c:	c606                	sw	ra,12(sp)
     e9e:	c422                	sw	s0,8(sp)
     ea0:	0800                	addi	s0,sp,16
     ea2:	2bc5                	jal	1492 <check_rst_src>
     ea4:	26f9                	jal	1272 <self_check>
     ea6:	45a1                	li	a1,8
     ea8:	678d                	lui	a5,0x3
     eaa:	82078513          	addi	a0,a5,-2016 # 2820 <_read+0x84>
     eae:	2d49                	jal	1540 <iprintf>
     eb0:	678d                	lui	a5,0x3
     eb2:	84c78513          	addi	a0,a5,-1972 # 284c <_read+0xb0>
     eb6:	7c8000ef          	jal	ra,167e <puts>
     eba:	3e800513          	li	a0,1000
     ebe:	2011                	jal	ec2 <Delay_Ms>
     ec0:	bfed                	j	eba <main+0x20>

00000ec2 <Delay_Ms>:
     ec2:	1101                	addi	sp,sp,-32
     ec4:	ce22                	sw	s0,28(sp)
     ec6:	1000                	addi	s0,sp,32
     ec8:	87aa                	mv	a5,a0
     eca:	fef41723          	sh	a5,-18(s0)
     ece:	400007b7          	lui	a5,0x40000
     ed2:	40078793          	addi	a5,a5,1024 # 40000400 <_eusrstack+0x1ffe0400>
     ed6:	239e                	fld	ft7,448(sp)
     ed8:	01079713          	slli	a4,a5,0x10
     edc:	8341                	srli	a4,a4,0x10
     ede:	400007b7          	lui	a5,0x40000
     ee2:	40078793          	addi	a5,a5,1024 # 40000400 <_eusrstack+0x1ffe0400>
     ee6:	9b79                	andi	a4,a4,-2
     ee8:	0742                	slli	a4,a4,0x10
     eea:	8341                	srli	a4,a4,0x10
     eec:	a39a                	fsd	ft6,448(sp)
     eee:	400007b7          	lui	a5,0x40000
     ef2:	40078793          	addi	a5,a5,1024 # 40000400 <_eusrstack+0x1ffe0400>
     ef6:	7765                	lui	a4,0xffff9
     ef8:	ca070713          	addi	a4,a4,-864 # ffff8ca0 <_eusrstack+0xdffd8ca0>
     efc:	b79a                	fsd	ft6,488(sp)
     efe:	400007b7          	lui	a5,0x40000
     f02:	40078793          	addi	a5,a5,1024 # 40000400 <_eusrstack+0x1ffe0400>
     f06:	fee45703          	lhu	a4,-18(s0)
     f0a:	070a                	slli	a4,a4,0x2
     f0c:	0742                	slli	a4,a4,0x10
     f0e:	8341                	srli	a4,a4,0x10
     f10:	b7da                	fsd	fs6,488(sp)
     f12:	400007b7          	lui	a5,0x40000
     f16:	40078793          	addi	a5,a5,1024 # 40000400 <_eusrstack+0x1ffe0400>
     f1a:	27de                	fld	fa5,464(sp)
     f1c:	01079713          	slli	a4,a5,0x10
     f20:	8341                	srli	a4,a4,0x10
     f22:	400007b7          	lui	a5,0x40000
     f26:	40078793          	addi	a5,a5,1024 # 40000400 <_eusrstack+0x1ffe0400>
     f2a:	00176713          	ori	a4,a4,1
     f2e:	0742                	slli	a4,a4,0x10
     f30:	8341                	srli	a4,a4,0x10
     f32:	a7da                	fsd	fs6,456(sp)
     f34:	400007b7          	lui	a5,0x40000
     f38:	40078793          	addi	a5,a5,1024 # 40000400 <_eusrstack+0x1ffe0400>
     f3c:	239e                	fld	ft7,448(sp)
     f3e:	01079713          	slli	a4,a5,0x10
     f42:	8341                	srli	a4,a4,0x10
     f44:	400007b7          	lui	a5,0x40000
     f48:	40078793          	addi	a5,a5,1024 # 40000400 <_eusrstack+0x1ffe0400>
     f4c:	00176713          	ori	a4,a4,1
     f50:	0742                	slli	a4,a4,0x10
     f52:	8341                	srli	a4,a4,0x10
     f54:	a39a                	fsd	ft6,448(sp)
     f56:	0001                	nop
     f58:	400007b7          	lui	a5,0x40000
     f5c:	40078793          	addi	a5,a5,1024 # 40000400 <_eusrstack+0x1ffe0400>
     f60:	2b9e                	fld	fs7,448(sp)
     f62:	07c2                	slli	a5,a5,0x10
     f64:	83c1                	srli	a5,a5,0x10
     f66:	8b85                	andi	a5,a5,1
     f68:	dbe5                	beqz	a5,f58 <Delay_Ms+0x96>
     f6a:	400007b7          	lui	a5,0x40000
     f6e:	40078793          	addi	a5,a5,1024 # 40000400 <_eusrstack+0x1ffe0400>
     f72:	5779                	li	a4,-2
     f74:	ab9a                	fsd	ft6,464(sp)
     f76:	400007b7          	lui	a5,0x40000
     f7a:	40078793          	addi	a5,a5,1024 # 40000400 <_eusrstack+0x1ffe0400>
     f7e:	239e                	fld	ft7,448(sp)
     f80:	01079713          	slli	a4,a5,0x10
     f84:	8341                	srli	a4,a4,0x10
     f86:	400007b7          	lui	a5,0x40000
     f8a:	40078793          	addi	a5,a5,1024 # 40000400 <_eusrstack+0x1ffe0400>
     f8e:	9b79                	andi	a4,a4,-2
     f90:	0742                	slli	a4,a4,0x10
     f92:	8341                	srli	a4,a4,0x10
     f94:	a39a                	fsd	ft6,448(sp)
     f96:	0001                	nop
     f98:	4472                	lw	s0,28(sp)
     f9a:	6105                	addi	sp,sp,32
     f9c:	8082                	ret

00000f9e <SystemInit>:
     f9e:	1141                	addi	sp,sp,-16
     fa0:	c606                	sw	ra,12(sp)
     fa2:	c422                	sw	s0,8(sp)
     fa4:	0800                	addi	s0,sp,16
     fa6:	400217b7          	lui	a5,0x40021
     faa:	4398                	lw	a4,0(a5)
     fac:	400217b7          	lui	a5,0x40021
     fb0:	00176713          	ori	a4,a4,1
     fb4:	c398                	sw	a4,0(a5)
     fb6:	400217b7          	lui	a5,0x40021
     fba:	43d4                	lw	a3,4(a5)
     fbc:	400217b7          	lui	a5,0x40021
     fc0:	f8ff0737          	lui	a4,0xf8ff0
     fc4:	8f75                	and	a4,a4,a3
     fc6:	c3d8                	sw	a4,4(a5)
     fc8:	400217b7          	lui	a5,0x40021
     fcc:	4394                	lw	a3,0(a5)
     fce:	400217b7          	lui	a5,0x40021
     fd2:	fef70737          	lui	a4,0xfef70
     fd6:	177d                	addi	a4,a4,-1
     fd8:	8f75                	and	a4,a4,a3
     fda:	c398                	sw	a4,0(a5)
     fdc:	400217b7          	lui	a5,0x40021
     fe0:	4394                	lw	a3,0(a5)
     fe2:	400217b7          	lui	a5,0x40021
     fe6:	fffc0737          	lui	a4,0xfffc0
     fea:	177d                	addi	a4,a4,-1
     fec:	8f75                	and	a4,a4,a3
     fee:	c398                	sw	a4,0(a5)
     ff0:	400217b7          	lui	a5,0x40021
     ff4:	43d4                	lw	a3,4(a5)
     ff6:	400217b7          	lui	a5,0x40021
     ffa:	ff810737          	lui	a4,0xff810
     ffe:	177d                	addi	a4,a4,-1
    1000:	8f75                	and	a4,a4,a3
    1002:	c3d8                	sw	a4,4(a5)
    1004:	400217b7          	lui	a5,0x40021
    1008:	4394                	lw	a3,0(a5)
    100a:	400217b7          	lui	a5,0x40021
    100e:	ec000737          	lui	a4,0xec000
    1012:	177d                	addi	a4,a4,-1
    1014:	8f75                	and	a4,a4,a3
    1016:	c398                	sw	a4,0(a5)
    1018:	400217b7          	lui	a5,0x40021
    101c:	00ff0737          	lui	a4,0xff0
    1020:	c798                	sw	a4,8(a5)
    1022:	400217b7          	lui	a5,0x40021
    1026:	0207a623          	sw	zero,44(a5) # 4002102c <_eusrstack+0x2000102c>
    102a:	2031                	jal	1036 <SetSysClock>
    102c:	0001                	nop
    102e:	40b2                	lw	ra,12(sp)
    1030:	4422                	lw	s0,8(sp)
    1032:	0141                	addi	sp,sp,16
    1034:	8082                	ret

00001036 <SetSysClock>:
    1036:	1141                	addi	sp,sp,-16
    1038:	c606                	sw	ra,12(sp)
    103a:	c422                	sw	s0,8(sp)
    103c:	0800                	addi	s0,sp,16
    103e:	2071                	jal	10ca <SetSysClockTo144>
    1040:	2031                	jal	104c <printf_init>
    1042:	0001                	nop
    1044:	40b2                	lw	ra,12(sp)
    1046:	4422                	lw	s0,8(sp)
    1048:	0141                	addi	sp,sp,16
    104a:	8082                	ret

0000104c <printf_init>:
    104c:	7179                	addi	sp,sp,-48
    104e:	d606                	sw	ra,44(sp)
    1050:	d422                	sw	s0,40(sp)
    1052:	1800                	addi	s0,sp,48
    1054:	4585                	li	a1,1
    1056:	6791                	lui	a5,0x4
    1058:	00478513          	addi	a0,a5,4 # 4004 <_data_lma+0x147c>
    105c:	38c5                	jal	94c <RCC_APB2PeriphClockCmd>
    105e:	20000793          	li	a5,512
    1062:	fef41223          	sh	a5,-28(s0)
    1066:	478d                	li	a5,3
    1068:	fef42423          	sw	a5,-24(s0)
    106c:	47e1                	li	a5,24
    106e:	fef42623          	sw	a5,-20(s0)
    1072:	fe440793          	addi	a5,s0,-28
    1076:	85be                	mv	a1,a5
    1078:	400117b7          	lui	a5,0x40011
    107c:	80078513          	addi	a0,a5,-2048 # 40010800 <_eusrstack+0x1fff0800>
    1080:	b5aff0ef          	jal	ra,3da <GPIO_Init>
    1084:	67f1                	lui	a5,0x1c
    1086:	20078793          	addi	a5,a5,512 # 1c200 <_data_lma+0x19678>
    108a:	fcf42a23          	sw	a5,-44(s0)
    108e:	fc041c23          	sh	zero,-40(s0)
    1092:	fc041d23          	sh	zero,-38(s0)
    1096:	fc041e23          	sh	zero,-36(s0)
    109a:	fe041023          	sh	zero,-32(s0)
    109e:	47a1                	li	a5,8
    10a0:	fcf41f23          	sh	a5,-34(s0)
    10a4:	fd440793          	addi	a5,s0,-44
    10a8:	85be                	mv	a1,a5
    10aa:	400147b7          	lui	a5,0x40014
    10ae:	80078513          	addi	a0,a5,-2048 # 40013800 <_eusrstack+0x1fff3800>
    10b2:	30c5                	jal	992 <USART_Init>
    10b4:	4585                	li	a1,1
    10b6:	400147b7          	lui	a5,0x40014
    10ba:	80078513          	addi	a0,a5,-2048 # 40013800 <_eusrstack+0x1fff3800>
    10be:	34ed                	jal	ba8 <USART_Cmd>
    10c0:	0001                	nop
    10c2:	50b2                	lw	ra,44(sp)
    10c4:	5422                	lw	s0,40(sp)
    10c6:	6145                	addi	sp,sp,48
    10c8:	8082                	ret

000010ca <SetSysClockTo144>:
    10ca:	1101                	addi	sp,sp,-32
    10cc:	ce22                	sw	s0,28(sp)
    10ce:	1000                	addi	s0,sp,32
    10d0:	fe042623          	sw	zero,-20(s0)
    10d4:	fe042423          	sw	zero,-24(s0)
    10d8:	400217b7          	lui	a5,0x40021
    10dc:	4394                	lw	a3,0(a5)
    10de:	400217b7          	lui	a5,0x40021
    10e2:	6741                	lui	a4,0x10
    10e4:	8f55                	or	a4,a4,a3
    10e6:	c398                	sw	a4,0(a5)
    10e8:	400217b7          	lui	a5,0x40021
    10ec:	4398                	lw	a4,0(a5)
    10ee:	000207b7          	lui	a5,0x20
    10f2:	8ff9                	and	a5,a5,a4
    10f4:	fef42423          	sw	a5,-24(s0)
    10f8:	fec42783          	lw	a5,-20(s0)
    10fc:	0785                	addi	a5,a5,1
    10fe:	fef42623          	sw	a5,-20(s0)
    1102:	fe842783          	lw	a5,-24(s0)
    1106:	e791                	bnez	a5,1112 <SetSysClockTo144+0x48>
    1108:	fec42703          	lw	a4,-20(s0)
    110c:	6785                	lui	a5,0x1
    110e:	fcf71de3          	bne	a4,a5,10e8 <SetSysClockTo144+0x1e>
    1112:	400217b7          	lui	a5,0x40021
    1116:	4398                	lw	a4,0(a5)
    1118:	000207b7          	lui	a5,0x20
    111c:	8ff9                	and	a5,a5,a4
    111e:	c789                	beqz	a5,1128 <SetSysClockTo144+0x5e>
    1120:	4785                	li	a5,1
    1122:	fef42423          	sw	a5,-24(s0)
    1126:	a019                	j	112c <SetSysClockTo144+0x62>
    1128:	fe042423          	sw	zero,-24(s0)
    112c:	fe842703          	lw	a4,-24(s0)
    1130:	4785                	li	a5,1
    1132:	0af71163          	bne	a4,a5,11d4 <SetSysClockTo144+0x10a>
    1136:	40021737          	lui	a4,0x40021
    113a:	400217b7          	lui	a5,0x40021
    113e:	4358                	lw	a4,4(a4)
    1140:	c3d8                	sw	a4,4(a5)
    1142:	40021737          	lui	a4,0x40021
    1146:	400217b7          	lui	a5,0x40021
    114a:	4358                	lw	a4,4(a4)
    114c:	c3d8                	sw	a4,4(a5)
    114e:	400217b7          	lui	a5,0x40021
    1152:	43d8                	lw	a4,4(a5)
    1154:	400217b7          	lui	a5,0x40021
    1158:	40076713          	ori	a4,a4,1024
    115c:	c3d8                	sw	a4,4(a5)
    115e:	400217b7          	lui	a5,0x40021
    1162:	43d4                	lw	a3,4(a5)
    1164:	400217b7          	lui	a5,0x40021
    1168:	ffc10737          	lui	a4,0xffc10
    116c:	177d                	addi	a4,a4,-1
    116e:	8f75                	and	a4,a4,a3
    1170:	c3d8                	sw	a4,4(a5)
    1172:	400217b7          	lui	a5,0x40021
    1176:	43d4                	lw	a3,4(a5)
    1178:	400217b7          	lui	a5,0x40021
    117c:	6741                	lui	a4,0x10
    117e:	8f55                	or	a4,a4,a3
    1180:	c3d8                	sw	a4,4(a5)
    1182:	400217b7          	lui	a5,0x40021
    1186:	4394                	lw	a3,0(a5)
    1188:	400217b7          	lui	a5,0x40021
    118c:	01000737          	lui	a4,0x1000
    1190:	8f55                	or	a4,a4,a3
    1192:	c398                	sw	a4,0(a5)
    1194:	0001                	nop
    1196:	400217b7          	lui	a5,0x40021
    119a:	4398                	lw	a4,0(a5)
    119c:	020007b7          	lui	a5,0x2000
    11a0:	8ff9                	and	a5,a5,a4
    11a2:	dbf5                	beqz	a5,1196 <SetSysClockTo144+0xcc>
    11a4:	400217b7          	lui	a5,0x40021
    11a8:	43d8                	lw	a4,4(a5)
    11aa:	400217b7          	lui	a5,0x40021
    11ae:	9b71                	andi	a4,a4,-4
    11b0:	c3d8                	sw	a4,4(a5)
    11b2:	400217b7          	lui	a5,0x40021
    11b6:	43d8                	lw	a4,4(a5)
    11b8:	400217b7          	lui	a5,0x40021
    11bc:	00276713          	ori	a4,a4,2
    11c0:	c3d8                	sw	a4,4(a5)
    11c2:	0001                	nop
    11c4:	400217b7          	lui	a5,0x40021
    11c8:	43dc                	lw	a5,4(a5)
    11ca:	00c7f713          	andi	a4,a5,12
    11ce:	47a1                	li	a5,8
    11d0:	fef71ae3          	bne	a4,a5,11c4 <SetSysClockTo144+0xfa>
    11d4:	0001                	nop
    11d6:	4472                	lw	s0,28(sp)
    11d8:	6105                	addi	sp,sp,32
    11da:	8082                	ret

000011dc <NVIC_EnableIRQ>:
    11dc:	1101                	addi	sp,sp,-32
    11de:	ce22                	sw	s0,28(sp)
    11e0:	1000                	addi	s0,sp,32
    11e2:	fea42623          	sw	a0,-20(s0)
    11e6:	fec42783          	lw	a5,-20(s0)
    11ea:	8bfd                	andi	a5,a5,31
    11ec:	4705                	li	a4,1
    11ee:	00f716b3          	sll	a3,a4,a5
    11f2:	e000e737          	lui	a4,0xe000e
    11f6:	fec42783          	lw	a5,-20(s0)
    11fa:	8395                	srli	a5,a5,0x5
    11fc:	04078793          	addi	a5,a5,64 # 40021040 <_eusrstack+0x20001040>
    1200:	078a                	slli	a5,a5,0x2
    1202:	97ba                	add	a5,a5,a4
    1204:	c394                	sw	a3,0(a5)
    1206:	0001                	nop
    1208:	4472                	lw	s0,28(sp)
    120a:	6105                	addi	sp,sp,32
    120c:	8082                	ret

0000120e <NVIC_DisableIRQ>:
    120e:	1101                	addi	sp,sp,-32
    1210:	ce22                	sw	s0,28(sp)
    1212:	1000                	addi	s0,sp,32
    1214:	fea42623          	sw	a0,-20(s0)
    1218:	fec42783          	lw	a5,-20(s0)
    121c:	8bfd                	andi	a5,a5,31
    121e:	4705                	li	a4,1
    1220:	00f716b3          	sll	a3,a4,a5
    1224:	e000e737          	lui	a4,0xe000e
    1228:	fec42783          	lw	a5,-20(s0)
    122c:	8395                	srli	a5,a5,0x5
    122e:	06078793          	addi	a5,a5,96
    1232:	078a                	slli	a5,a5,0x2
    1234:	97ba                	add	a5,a5,a4
    1236:	c394                	sw	a3,0(a5)
    1238:	0001                	nop
    123a:	4472                	lw	s0,28(sp)
    123c:	6105                	addi	sp,sp,32
    123e:	8082                	ret

00001240 <NVIC_SetPendingIRQ>:
    1240:	1101                	addi	sp,sp,-32
    1242:	ce22                	sw	s0,28(sp)
    1244:	1000                	addi	s0,sp,32
    1246:	fea42623          	sw	a0,-20(s0)
    124a:	fec42783          	lw	a5,-20(s0)
    124e:	8bfd                	andi	a5,a5,31
    1250:	4705                	li	a4,1
    1252:	00f716b3          	sll	a3,a4,a5
    1256:	e000e737          	lui	a4,0xe000e
    125a:	fec42783          	lw	a5,-20(s0)
    125e:	8395                	srli	a5,a5,0x5
    1260:	08078793          	addi	a5,a5,128
    1264:	078a                	slli	a5,a5,0x2
    1266:	97ba                	add	a5,a5,a4
    1268:	c394                	sw	a3,0(a5)
    126a:	0001                	nop
    126c:	4472                	lw	s0,28(sp)
    126e:	6105                	addi	sp,sp,32
    1270:	8082                	ret

00001272 <self_check>:
    1272:	7179                	addi	sp,sp,-48
    1274:	d606                	sw	ra,44(sp)
    1276:	d422                	sw	s0,40(sp)
    1278:	1800                	addi	s0,sp,48
    127a:	4539                	li	a0,14
    127c:	3785                	jal	11dc <NVIC_EnableIRQ>
    127e:	4539                	li	a0,14
    1280:	37c1                	jal	1240 <NVIC_SetPendingIRQ>
    1282:	4539                	li	a0,14
    1284:	3769                	jal	120e <NVIC_DisableIRQ>
    1286:	678d                	lui	a5,0x3
    1288:	86078513          	addi	a0,a5,-1952 # 2860 <_read+0xc4>
    128c:	2ecd                	jal	167e <puts>
    128e:	678d                	lui	a5,0x3
    1290:	88078513          	addi	a0,a5,-1920 # 2880 <_read+0xe4>
    1294:	26ed                	jal	167e <puts>
    1296:	678d                	lui	a5,0x3
    1298:	89878693          	addi	a3,a5,-1896 # 2898 <_read+0xfc>
    129c:	678d                	lui	a5,0x3
    129e:	8a478613          	addi	a2,a5,-1884 # 28a4 <_read+0x108>
    12a2:	4585                	li	a1,1
    12a4:	678d                	lui	a5,0x3
    12a6:	8b078513          	addi	a0,a5,-1872 # 28b0 <_read+0x114>
    12aa:	2c59                	jal	1540 <iprintf>
    12ac:	678d                	lui	a5,0x3
    12ae:	8e478513          	addi	a0,a5,-1820 # 28e4 <_read+0x148>
    12b2:	26f1                	jal	167e <puts>
    12b4:	8241a783          	lw	a5,-2012(gp) # 200000a4 <core_csr>
    12b8:	83e9                	srli	a5,a5,0x1a
    12ba:	8bfd                	andi	a5,a5,31
    12bc:	04078593          	addi	a1,a5,64
    12c0:	8241a783          	lw	a5,-2012(gp) # 200000a4 <core_csr>
    12c4:	83d5                	srli	a5,a5,0x15
    12c6:	8bfd                	andi	a5,a5,31
    12c8:	04078613          	addi	a2,a5,64
    12cc:	8241a783          	lw	a5,-2012(gp) # 200000a4 <core_csr>
    12d0:	83c1                	srli	a5,a5,0x10
    12d2:	8bfd                	andi	a5,a5,31
    12d4:	04078693          	addi	a3,a5,64
    12d8:	8241a783          	lw	a5,-2012(gp) # 200000a4 <core_csr>
    12dc:	83a9                	srli	a5,a5,0xa
    12de:	8bfd                	andi	a5,a5,31
    12e0:	04078713          	addi	a4,a5,64
    12e4:	8241a783          	lw	a5,-2012(gp) # 200000a4 <core_csr>
    12e8:	8395                	srli	a5,a5,0x5
    12ea:	01f7f513          	andi	a0,a5,31
    12ee:	8241a783          	lw	a5,-2012(gp) # 200000a4 <core_csr>
    12f2:	8bfd                	andi	a5,a5,31
    12f4:	04078793          	addi	a5,a5,64
    12f8:	883e                	mv	a6,a5
    12fa:	87aa                	mv	a5,a0
    12fc:	650d                	lui	a0,0x3
    12fe:	90450513          	addi	a0,a0,-1788 # 2904 <_read+0x168>
    1302:	2c3d                	jal	1540 <iprintf>
    1304:	82418793          	addi	a5,gp,-2012 # 200000a4 <core_csr>
    1308:	43dc                	lw	a5,4(a5)
    130a:	0037f713          	andi	a4,a5,3
    130e:	4785                	li	a5,1
    1310:	02f70a63          	beq	a4,a5,1344 <self_check+0xd2>
    1314:	82418793          	addi	a5,gp,-2012 # 200000a4 <core_csr>
    1318:	43dc                	lw	a5,4(a5)
    131a:	0037f713          	andi	a4,a5,3
    131e:	4789                	li	a5,2
    1320:	00f70f63          	beq	a4,a5,133e <self_check+0xcc>
    1324:	82418793          	addi	a5,gp,-2012 # 200000a4 <core_csr>
    1328:	43dc                	lw	a5,4(a5)
    132a:	0037f713          	andi	a4,a5,3
    132e:	478d                	li	a5,3
    1330:	00f71563          	bne	a4,a5,133a <self_check+0xc8>
    1334:	08000793          	li	a5,128
    1338:	a801                	j	1348 <self_check+0xd6>
    133a:	4781                	li	a5,0
    133c:	a031                	j	1348 <self_check+0xd6>
    133e:	04000793          	li	a5,64
    1342:	a019                	j	1348 <self_check+0xd6>
    1344:	02000793          	li	a5,32
    1348:	85be                	mv	a1,a5
    134a:	678d                	lui	a5,0x3
    134c:	92478513          	addi	a0,a5,-1756 # 2924 <_read+0x188>
    1350:	2ac5                	jal	1540 <iprintf>
    1352:	fe0407a3          	sb	zero,-17(s0)
    1356:	a80d                	j	1388 <self_check+0x116>
    1358:	82418793          	addi	a5,gp,-2012 # 200000a4 <core_csr>
    135c:	43dc                	lw	a5,4(a5)
    135e:	fef44703          	lbu	a4,-17(s0)
    1362:	4685                	li	a3,1
    1364:	00e69733          	sll	a4,a3,a4
    1368:	8ff9                	and	a5,a5,a4
    136a:	cb91                	beqz	a5,137e <self_check+0x10c>
    136c:	fef44783          	lbu	a5,-17(s0)
    1370:	04178793          	addi	a5,a5,65
    1374:	85be                	mv	a1,a5
    1376:	678d                	lui	a5,0x3
    1378:	95878513          	addi	a0,a5,-1704 # 2958 <_read+0x1bc>
    137c:	22d1                	jal	1540 <iprintf>
    137e:	fef44783          	lbu	a5,-17(s0)
    1382:	0785                	addi	a5,a5,1
    1384:	fef407a3          	sb	a5,-17(s0)
    1388:	fef44703          	lbu	a4,-17(s0)
    138c:	47e5                	li	a5,25
    138e:	fce7f5e3          	bgeu	a5,a4,1358 <self_check+0xe6>
    1392:	4529                	li	a0,10
    1394:	22f5                	jal	1580 <putchar>
    1396:	400227b7          	lui	a5,0x40022
    139a:	4fdc                	lw	a5,28(a5)
    139c:	8389                	srli	a5,a5,0x2
    139e:	0c07f713          	andi	a4,a5,192
    13a2:	4781                	li	a5,0
    13a4:	8f99                	sub	a5,a5,a4
    13a6:	0796                	slli	a5,a5,0x5
    13a8:	08078593          	addi	a1,a5,128 # 40022080 <_eusrstack+0x20002080>
    13ac:	1ffff7b7          	lui	a5,0x1ffff
    13b0:	7e078793          	addi	a5,a5,2016 # 1ffff7e0 <_data_lma+0x1fffcc58>
    13b4:	239e                	fld	ft7,448(sp)
    13b6:	863e                	mv	a2,a5
    13b8:	400227b7          	lui	a5,0x40022
    13bc:	4fdc                	lw	a5,28(a5)
    13be:	8389                	srli	a5,a5,0x2
    13c0:	0c07f713          	andi	a4,a5,192
    13c4:	4781                	li	a5,0
    13c6:	8f99                	sub	a5,a5,a4
    13c8:	0796                	slli	a5,a5,0x5
    13ca:	873e                	mv	a4,a5
    13cc:	0c000793          	li	a5,192
    13d0:	8f99                	sub	a5,a5,a4
    13d2:	86be                	mv	a3,a5
    13d4:	678d                	lui	a5,0x3
    13d6:	95c78513          	addi	a0,a5,-1700 # 295c <_read+0x1c0>
    13da:	229d                	jal	1540 <iprintf>
    13dc:	fd840793          	addi	a5,s0,-40
    13e0:	853e                	mv	a0,a5
    13e2:	a1aff0ef          	jal	ra,5fc <RCC_GetClocksFreq>
    13e6:	fd842703          	lw	a4,-40(s0)
    13ea:	000f47b7          	lui	a5,0xf4
    13ee:	24078793          	addi	a5,a5,576 # f4240 <_data_lma+0xf16b8>
    13f2:	02f757b3          	divu	a5,a4,a5
    13f6:	85be                	mv	a1,a5
    13f8:	678d                	lui	a5,0x3
    13fa:	9a878513          	addi	a0,a5,-1624 # 29a8 <_read+0x20c>
    13fe:	2289                	jal	1540 <iprintf>
    1400:	fdc42703          	lw	a4,-36(s0)
    1404:	000f47b7          	lui	a5,0xf4
    1408:	24078793          	addi	a5,a5,576 # f4240 <_data_lma+0xf16b8>
    140c:	02f757b3          	divu	a5,a4,a5
    1410:	85be                	mv	a1,a5
    1412:	678d                	lui	a5,0x3
    1414:	9c078513          	addi	a0,a5,-1600 # 29c0 <_read+0x224>
    1418:	2225                	jal	1540 <iprintf>
    141a:	fe042703          	lw	a4,-32(s0)
    141e:	000f47b7          	lui	a5,0xf4
    1422:	24078793          	addi	a5,a5,576 # f4240 <_data_lma+0xf16b8>
    1426:	02f757b3          	divu	a5,a4,a5
    142a:	85be                	mv	a1,a5
    142c:	678d                	lui	a5,0x3
    142e:	9d878513          	addi	a0,a5,-1576 # 29d8 <_read+0x23c>
    1432:	2239                	jal	1540 <iprintf>
    1434:	fe442703          	lw	a4,-28(s0)
    1438:	000f47b7          	lui	a5,0xf4
    143c:	24078793          	addi	a5,a5,576 # f4240 <_data_lma+0xf16b8>
    1440:	02f757b3          	divu	a5,a4,a5
    1444:	85be                	mv	a1,a5
    1446:	678d                	lui	a5,0x3
    1448:	9f078513          	addi	a0,a5,-1552 # 29f0 <_read+0x254>
    144c:	28d5                	jal	1540 <iprintf>
    144e:	fe842703          	lw	a4,-24(s0)
    1452:	000f47b7          	lui	a5,0xf4
    1456:	24078793          	addi	a5,a5,576 # f4240 <_data_lma+0xf16b8>
    145a:	02f757b3          	divu	a5,a4,a5
    145e:	85be                	mv	a1,a5
    1460:	678d                	lui	a5,0x3
    1462:	a0878513          	addi	a0,a5,-1528 # 2a08 <_read+0x26c>
    1466:	28e9                	jal	1540 <iprintf>
    1468:	82418793          	addi	a5,gp,-2012 # 200000a4 <core_csr>
    146c:	479c                	lw	a5,8(a5)
    146e:	85be                	mv	a1,a5
    1470:	678d                	lui	a5,0x3
    1472:	a1c78513          	addi	a0,a5,-1508 # 2a1c <_read+0x280>
    1476:	20e9                	jal	1540 <iprintf>
    1478:	000017b7          	lui	a5,0x1
    147c:	e9a78593          	addi	a1,a5,-358 # e9a <main>
    1480:	678d                	lui	a5,0x3
    1482:	a3c78513          	addi	a0,a5,-1476 # 2a3c <_read+0x2a0>
    1486:	286d                	jal	1540 <iprintf>
    1488:	0001                	nop
    148a:	50b2                	lw	ra,44(sp)
    148c:	5422                	lw	s0,40(sp)
    148e:	6145                	addi	sp,sp,48
    1490:	8082                	ret

00001492 <check_rst_src>:
    1492:	1101                	addi	sp,sp,-32
    1494:	ce06                	sw	ra,28(sp)
    1496:	cc22                	sw	s0,24(sp)
    1498:	1000                	addi	s0,sp,32
    149a:	400217b7          	lui	a5,0x40021
    149e:	53dc                	lw	a5,36(a5)
    14a0:	fef42623          	sw	a5,-20(s0)
    14a4:	678d                	lui	a5,0x3
    14a6:	a5878513          	addi	a0,a5,-1448 # 2a58 <_read+0x2bc>
    14aa:	2859                	jal	1540 <iprintf>
    14ac:	fec42783          	lw	a5,-20(s0)
    14b0:	0007d663          	bgez	a5,14bc <check_rst_src+0x2a>
    14b4:	678d                	lui	a5,0x3
    14b6:	a7878513          	addi	a0,a5,-1416 # 2a78 <_read+0x2dc>
    14ba:	2059                	jal	1540 <iprintf>
    14bc:	fec42703          	lw	a4,-20(s0)
    14c0:	400007b7          	lui	a5,0x40000
    14c4:	8ff9                	and	a5,a5,a4
    14c6:	c789                	beqz	a5,14d0 <check_rst_src+0x3e>
    14c8:	678d                	lui	a5,0x3
    14ca:	a8c78513          	addi	a0,a5,-1396 # 2a8c <_read+0x2f0>
    14ce:	288d                	jal	1540 <iprintf>
    14d0:	fec42703          	lw	a4,-20(s0)
    14d4:	200007b7          	lui	a5,0x20000
    14d8:	8ff9                	and	a5,a5,a4
    14da:	c789                	beqz	a5,14e4 <check_rst_src+0x52>
    14dc:	678d                	lui	a5,0x3
    14de:	aa478513          	addi	a0,a5,-1372 # 2aa4 <_read+0x308>
    14e2:	28b9                	jal	1540 <iprintf>
    14e4:	fec42703          	lw	a4,-20(s0)
    14e8:	100007b7          	lui	a5,0x10000
    14ec:	8ff9                	and	a5,a5,a4
    14ee:	c789                	beqz	a5,14f8 <check_rst_src+0x66>
    14f0:	678d                	lui	a5,0x3
    14f2:	abc78513          	addi	a0,a5,-1348 # 2abc <_read+0x320>
    14f6:	20a9                	jal	1540 <iprintf>
    14f8:	fec42703          	lw	a4,-20(s0)
    14fc:	080007b7          	lui	a5,0x8000
    1500:	8ff9                	and	a5,a5,a4
    1502:	c789                	beqz	a5,150c <check_rst_src+0x7a>
    1504:	678d                	lui	a5,0x3
    1506:	acc78513          	addi	a0,a5,-1332 # 2acc <_read+0x330>
    150a:	281d                	jal	1540 <iprintf>
    150c:	fec42703          	lw	a4,-20(s0)
    1510:	040007b7          	lui	a5,0x4000
    1514:	8ff9                	and	a5,a5,a4
    1516:	c789                	beqz	a5,1520 <check_rst_src+0x8e>
    1518:	678d                	lui	a5,0x3
    151a:	adc78513          	addi	a0,a5,-1316 # 2adc <_read+0x340>
    151e:	200d                	jal	1540 <iprintf>
    1520:	4529                	li	a0,10
    1522:	28b9                	jal	1580 <putchar>
    1524:	400217b7          	lui	a5,0x40021
    1528:	53d4                	lw	a3,36(a5)
    152a:	400217b7          	lui	a5,0x40021
    152e:	01000737          	lui	a4,0x1000
    1532:	8f55                	or	a4,a4,a3
    1534:	d3d8                	sw	a4,36(a5)
    1536:	0001                	nop
    1538:	40f2                	lw	ra,28(sp)
    153a:	4462                	lw	s0,24(sp)
    153c:	6105                	addi	sp,sp,32
    153e:	8082                	ret

00001540 <iprintf>:
    1540:	7139                	addi	sp,sp,-64
    1542:	da3e                	sw	a5,52(sp)
    1544:	d22e                	sw	a1,36(sp)
    1546:	d432                	sw	a2,40(sp)
    1548:	d636                	sw	a3,44(sp)
    154a:	d83a                	sw	a4,48(sp)
    154c:	dc42                	sw	a6,56(sp)
    154e:	de46                	sw	a7,60(sp)
    1550:	80818793          	addi	a5,gp,-2040 # 20000088 <_impure_ptr>
    1554:	cc22                	sw	s0,24(sp)
    1556:	4380                	lw	s0,0(a5)
    1558:	ca26                	sw	s1,20(sp)
    155a:	ce06                	sw	ra,28(sp)
    155c:	84aa                	mv	s1,a0
    155e:	c409                	beqz	s0,1568 <iprintf+0x28>
    1560:	4c1c                	lw	a5,24(s0)
    1562:	e399                	bnez	a5,1568 <iprintf+0x28>
    1564:	8522                	mv	a0,s0
    1566:	2315                	jal	1a8a <__sinit>
    1568:	440c                	lw	a1,8(s0)
    156a:	1054                	addi	a3,sp,36
    156c:	8626                	mv	a2,s1
    156e:	8522                	mv	a0,s0
    1570:	c636                	sw	a3,12(sp)
    1572:	155000ef          	jal	ra,1ec6 <_vfiprintf_r>
    1576:	40f2                	lw	ra,28(sp)
    1578:	4462                	lw	s0,24(sp)
    157a:	44d2                	lw	s1,20(sp)
    157c:	6121                	addi	sp,sp,64
    157e:	8082                	ret

00001580 <putchar>:
    1580:	1101                	addi	sp,sp,-32
    1582:	80818793          	addi	a5,gp,-2040 # 20000088 <_impure_ptr>
    1586:	cc22                	sw	s0,24(sp)
    1588:	4380                	lw	s0,0(a5)
    158a:	ce06                	sw	ra,28(sp)
    158c:	85aa                	mv	a1,a0
    158e:	c419                	beqz	s0,159c <putchar+0x1c>
    1590:	4c1c                	lw	a5,24(s0)
    1592:	e789                	bnez	a5,159c <putchar+0x1c>
    1594:	c62a                	sw	a0,12(sp)
    1596:	8522                	mv	a0,s0
    1598:	29cd                	jal	1a8a <__sinit>
    159a:	45b2                	lw	a1,12(sp)
    159c:	4410                	lw	a2,8(s0)
    159e:	8522                	mv	a0,s0
    15a0:	4462                	lw	s0,24(sp)
    15a2:	40f2                	lw	ra,28(sp)
    15a4:	6105                	addi	sp,sp,32
    15a6:	7530006f          	j	24f8 <_putc_r>

000015aa <_puts_r>:
    15aa:	1101                	addi	sp,sp,-32
    15ac:	ca26                	sw	s1,20(sp)
    15ae:	c84a                	sw	s2,16(sp)
    15b0:	ce06                	sw	ra,28(sp)
    15b2:	cc22                	sw	s0,24(sp)
    15b4:	c64e                	sw	s3,12(sp)
    15b6:	c452                	sw	s4,8(sp)
    15b8:	84aa                	mv	s1,a0
    15ba:	892e                	mv	s2,a1
    15bc:	c501                	beqz	a0,15c4 <_puts_r+0x1a>
    15be:	4d1c                	lw	a5,24(a0)
    15c0:	e391                	bnez	a5,15c4 <_puts_r+0x1a>
    15c2:	21e1                	jal	1a8a <__sinit>
    15c4:	4c9c                	lw	a5,24(s1)
    15c6:	4480                	lw	s0,8(s1)
    15c8:	e399                	bnez	a5,15ce <_puts_r+0x24>
    15ca:	8526                	mv	a0,s1
    15cc:	297d                	jal	1a8a <__sinit>
    15ce:	00001797          	auipc	a5,0x1
    15d2:	53e78793          	addi	a5,a5,1342 # 2b0c <__sf_fake_stdin>
    15d6:	02f41b63          	bne	s0,a5,160c <_puts_r+0x62>
    15da:	40c0                	lw	s0,4(s1)
    15dc:	245e                	fld	fs0,464(sp)
    15de:	8ba1                	andi	a5,a5,8
    15e0:	c7b1                	beqz	a5,162c <_puts_r+0x82>
    15e2:	481c                	lw	a5,16(s0)
    15e4:	c7a1                	beqz	a5,162c <_puts_r+0x82>
    15e6:	59fd                	li	s3,-1
    15e8:	4a29                	li	s4,10
    15ea:	441c                	lw	a5,8(s0)
    15ec:	00094583          	lbu	a1,0(s2)
    15f0:	17fd                	addi	a5,a5,-1
    15f2:	e9b1                	bnez	a1,1646 <_puts_r+0x9c>
    15f4:	c41c                	sw	a5,8(s0)
    15f6:	0607dd63          	bgez	a5,1670 <_puts_r+0xc6>
    15fa:	8622                	mv	a2,s0
    15fc:	45a9                	li	a1,10
    15fe:	8526                	mv	a0,s1
    1600:	2061                	jal	1688 <__swbuf_r>
    1602:	57fd                	li	a5,-1
    1604:	02f50863          	beq	a0,a5,1634 <_puts_r+0x8a>
    1608:	4529                	li	a0,10
    160a:	a035                	j	1636 <_puts_r+0x8c>
    160c:	00001797          	auipc	a5,0x1
    1610:	52078793          	addi	a5,a5,1312 # 2b2c <__sf_fake_stdout>
    1614:	00f41463          	bne	s0,a5,161c <_puts_r+0x72>
    1618:	4480                	lw	s0,8(s1)
    161a:	b7c9                	j	15dc <_puts_r+0x32>
    161c:	00001797          	auipc	a5,0x1
    1620:	4d078793          	addi	a5,a5,1232 # 2aec <__sf_fake_stderr>
    1624:	faf41ce3          	bne	s0,a5,15dc <_puts_r+0x32>
    1628:	44c0                	lw	s0,12(s1)
    162a:	bf4d                	j	15dc <_puts_r+0x32>
    162c:	85a2                	mv	a1,s0
    162e:	8526                	mv	a0,s1
    1630:	2a11                	jal	1744 <__swsetup_r>
    1632:	d955                	beqz	a0,15e6 <_puts_r+0x3c>
    1634:	557d                	li	a0,-1
    1636:	40f2                	lw	ra,28(sp)
    1638:	4462                	lw	s0,24(sp)
    163a:	44d2                	lw	s1,20(sp)
    163c:	4942                	lw	s2,16(sp)
    163e:	49b2                	lw	s3,12(sp)
    1640:	4a22                	lw	s4,8(sp)
    1642:	6105                	addi	sp,sp,32
    1644:	8082                	ret
    1646:	c41c                	sw	a5,8(s0)
    1648:	0905                	addi	s2,s2,1
    164a:	0007d763          	bgez	a5,1658 <_puts_r+0xae>
    164e:	4c18                	lw	a4,24(s0)
    1650:	00e7ca63          	blt	a5,a4,1664 <_puts_r+0xba>
    1654:	01458863          	beq	a1,s4,1664 <_puts_r+0xba>
    1658:	401c                	lw	a5,0(s0)
    165a:	00178713          	addi	a4,a5,1
    165e:	c018                	sw	a4,0(s0)
    1660:	a38c                	fsd	fa1,0(a5)
    1662:	b761                	j	15ea <_puts_r+0x40>
    1664:	8622                	mv	a2,s0
    1666:	8526                	mv	a0,s1
    1668:	2005                	jal	1688 <__swbuf_r>
    166a:	f93510e3          	bne	a0,s3,15ea <_puts_r+0x40>
    166e:	b7d9                	j	1634 <_puts_r+0x8a>
    1670:	401c                	lw	a5,0(s0)
    1672:	00178713          	addi	a4,a5,1
    1676:	c018                	sw	a4,0(s0)
    1678:	4729                	li	a4,10
    167a:	a398                	fsd	fa4,0(a5)
    167c:	b771                	j	1608 <_puts_r+0x5e>

0000167e <puts>:
    167e:	80818793          	addi	a5,gp,-2040 # 20000088 <_impure_ptr>
    1682:	85aa                	mv	a1,a0
    1684:	4388                	lw	a0,0(a5)
    1686:	b715                	j	15aa <_puts_r>

00001688 <__swbuf_r>:
    1688:	1101                	addi	sp,sp,-32
    168a:	cc22                	sw	s0,24(sp)
    168c:	ca26                	sw	s1,20(sp)
    168e:	c84a                	sw	s2,16(sp)
    1690:	ce06                	sw	ra,28(sp)
    1692:	c64e                	sw	s3,12(sp)
    1694:	84aa                	mv	s1,a0
    1696:	892e                	mv	s2,a1
    1698:	8432                	mv	s0,a2
    169a:	c501                	beqz	a0,16a2 <__swbuf_r+0x1a>
    169c:	4d1c                	lw	a5,24(a0)
    169e:	e391                	bnez	a5,16a2 <__swbuf_r+0x1a>
    16a0:	26ed                	jal	1a8a <__sinit>
    16a2:	00001797          	auipc	a5,0x1
    16a6:	46a78793          	addi	a5,a5,1130 # 2b0c <__sf_fake_stdin>
    16aa:	06f41763          	bne	s0,a5,1718 <__swbuf_r+0x90>
    16ae:	40c0                	lw	s0,4(s1)
    16b0:	4c1c                	lw	a5,24(s0)
    16b2:	c41c                	sw	a5,8(s0)
    16b4:	245e                	fld	fs0,464(sp)
    16b6:	8ba1                	andi	a5,a5,8
    16b8:	c3c1                	beqz	a5,1738 <__swbuf_r+0xb0>
    16ba:	481c                	lw	a5,16(s0)
    16bc:	cfb5                	beqz	a5,1738 <__swbuf_r+0xb0>
    16be:	481c                	lw	a5,16(s0)
    16c0:	4008                	lw	a0,0(s0)
    16c2:	0ff97993          	andi	s3,s2,255
    16c6:	0ff97913          	andi	s2,s2,255
    16ca:	8d1d                	sub	a0,a0,a5
    16cc:	485c                	lw	a5,20(s0)
    16ce:	00f54663          	blt	a0,a5,16da <__swbuf_r+0x52>
    16d2:	85a2                	mv	a1,s0
    16d4:	8526                	mv	a0,s1
    16d6:	2c69                	jal	1970 <_fflush_r>
    16d8:	e525                	bnez	a0,1740 <__swbuf_r+0xb8>
    16da:	441c                	lw	a5,8(s0)
    16dc:	0505                	addi	a0,a0,1
    16de:	17fd                	addi	a5,a5,-1
    16e0:	c41c                	sw	a5,8(s0)
    16e2:	401c                	lw	a5,0(s0)
    16e4:	00178713          	addi	a4,a5,1
    16e8:	c018                	sw	a4,0(s0)
    16ea:	01378023          	sb	s3,0(a5)
    16ee:	485c                	lw	a5,20(s0)
    16f0:	00a78863          	beq	a5,a0,1700 <__swbuf_r+0x78>
    16f4:	245e                	fld	fs0,464(sp)
    16f6:	8b85                	andi	a5,a5,1
    16f8:	cb81                	beqz	a5,1708 <__swbuf_r+0x80>
    16fa:	47a9                	li	a5,10
    16fc:	00f91663          	bne	s2,a5,1708 <__swbuf_r+0x80>
    1700:	85a2                	mv	a1,s0
    1702:	8526                	mv	a0,s1
    1704:	24b5                	jal	1970 <_fflush_r>
    1706:	ed0d                	bnez	a0,1740 <__swbuf_r+0xb8>
    1708:	40f2                	lw	ra,28(sp)
    170a:	4462                	lw	s0,24(sp)
    170c:	854a                	mv	a0,s2
    170e:	44d2                	lw	s1,20(sp)
    1710:	4942                	lw	s2,16(sp)
    1712:	49b2                	lw	s3,12(sp)
    1714:	6105                	addi	sp,sp,32
    1716:	8082                	ret
    1718:	00001797          	auipc	a5,0x1
    171c:	41478793          	addi	a5,a5,1044 # 2b2c <__sf_fake_stdout>
    1720:	00f41463          	bne	s0,a5,1728 <__swbuf_r+0xa0>
    1724:	4480                	lw	s0,8(s1)
    1726:	b769                	j	16b0 <__swbuf_r+0x28>
    1728:	00001797          	auipc	a5,0x1
    172c:	3c478793          	addi	a5,a5,964 # 2aec <__sf_fake_stderr>
    1730:	f8f410e3          	bne	s0,a5,16b0 <__swbuf_r+0x28>
    1734:	44c0                	lw	s0,12(s1)
    1736:	bfad                	j	16b0 <__swbuf_r+0x28>
    1738:	85a2                	mv	a1,s0
    173a:	8526                	mv	a0,s1
    173c:	2021                	jal	1744 <__swsetup_r>
    173e:	d141                	beqz	a0,16be <__swbuf_r+0x36>
    1740:	597d                	li	s2,-1
    1742:	b7d9                	j	1708 <__swbuf_r+0x80>

00001744 <__swsetup_r>:
    1744:	1141                	addi	sp,sp,-16
    1746:	80818793          	addi	a5,gp,-2040 # 20000088 <_impure_ptr>
    174a:	c226                	sw	s1,4(sp)
    174c:	4384                	lw	s1,0(a5)
    174e:	c422                	sw	s0,8(sp)
    1750:	c04a                	sw	s2,0(sp)
    1752:	c606                	sw	ra,12(sp)
    1754:	892a                	mv	s2,a0
    1756:	842e                	mv	s0,a1
    1758:	c489                	beqz	s1,1762 <__swsetup_r+0x1e>
    175a:	4c9c                	lw	a5,24(s1)
    175c:	e399                	bnez	a5,1762 <__swsetup_r+0x1e>
    175e:	8526                	mv	a0,s1
    1760:	262d                	jal	1a8a <__sinit>
    1762:	00001797          	auipc	a5,0x1
    1766:	3aa78793          	addi	a5,a5,938 # 2b0c <__sf_fake_stdin>
    176a:	02f41b63          	bne	s0,a5,17a0 <__swsetup_r+0x5c>
    176e:	40c0                	lw	s0,4(s1)
    1770:	00c41703          	lh	a4,12(s0)
    1774:	01071793          	slli	a5,a4,0x10
    1778:	83c1                	srli	a5,a5,0x10
    177a:	0087f693          	andi	a3,a5,8
    177e:	eaad                	bnez	a3,17f0 <__swsetup_r+0xac>
    1780:	0107f693          	andi	a3,a5,16
    1784:	ee95                	bnez	a3,17c0 <__swsetup_r+0x7c>
    1786:	47a5                	li	a5,9
    1788:	00f92023          	sw	a5,0(s2)
    178c:	04076713          	ori	a4,a4,64
    1790:	a45a                	fsd	fs6,8(sp)
    1792:	557d                	li	a0,-1
    1794:	40b2                	lw	ra,12(sp)
    1796:	4422                	lw	s0,8(sp)
    1798:	4492                	lw	s1,4(sp)
    179a:	4902                	lw	s2,0(sp)
    179c:	0141                	addi	sp,sp,16
    179e:	8082                	ret
    17a0:	00001797          	auipc	a5,0x1
    17a4:	38c78793          	addi	a5,a5,908 # 2b2c <__sf_fake_stdout>
    17a8:	00f41463          	bne	s0,a5,17b0 <__swsetup_r+0x6c>
    17ac:	4480                	lw	s0,8(s1)
    17ae:	b7c9                	j	1770 <__swsetup_r+0x2c>
    17b0:	00001797          	auipc	a5,0x1
    17b4:	33c78793          	addi	a5,a5,828 # 2aec <__sf_fake_stderr>
    17b8:	faf41ce3          	bne	s0,a5,1770 <__swsetup_r+0x2c>
    17bc:	44c0                	lw	s0,12(s1)
    17be:	bf4d                	j	1770 <__swsetup_r+0x2c>
    17c0:	8b91                	andi	a5,a5,4
    17c2:	c39d                	beqz	a5,17e8 <__swsetup_r+0xa4>
    17c4:	584c                	lw	a1,52(s0)
    17c6:	c989                	beqz	a1,17d8 <__swsetup_r+0x94>
    17c8:	04440793          	addi	a5,s0,68
    17cc:	00f58463          	beq	a1,a5,17d4 <__swsetup_r+0x90>
    17d0:	854a                	mv	a0,s2
    17d2:	2331                	jal	1cde <_free_r>
    17d4:	02042a23          	sw	zero,52(s0)
    17d8:	245e                	fld	fs0,464(sp)
    17da:	00042223          	sw	zero,4(s0)
    17de:	fdb7f793          	andi	a5,a5,-37
    17e2:	a45e                	fsd	fs7,8(sp)
    17e4:	481c                	lw	a5,16(s0)
    17e6:	c01c                	sw	a5,0(s0)
    17e8:	245e                	fld	fs0,464(sp)
    17ea:	0087e793          	ori	a5,a5,8
    17ee:	a45e                	fsd	fs7,8(sp)
    17f0:	481c                	lw	a5,16(s0)
    17f2:	eb99                	bnez	a5,1808 <__swsetup_r+0xc4>
    17f4:	245e                	fld	fs0,464(sp)
    17f6:	20000713          	li	a4,512
    17fa:	2807f793          	andi	a5,a5,640
    17fe:	00e78563          	beq	a5,a4,1808 <__swsetup_r+0xc4>
    1802:	85a2                	mv	a1,s0
    1804:	854a                	mv	a0,s2
    1806:	21a1                	jal	1c4e <__smakebuf_r>
    1808:	245e                	fld	fs0,464(sp)
    180a:	0017f713          	andi	a4,a5,1
    180e:	c31d                	beqz	a4,1834 <__swsetup_r+0xf0>
    1810:	485c                	lw	a5,20(s0)
    1812:	00042423          	sw	zero,8(s0)
    1816:	40f007b3          	neg	a5,a5
    181a:	cc1c                	sw	a5,24(s0)
    181c:	481c                	lw	a5,16(s0)
    181e:	4501                	li	a0,0
    1820:	fbb5                	bnez	a5,1794 <__swsetup_r+0x50>
    1822:	00c41783          	lh	a5,12(s0)
    1826:	0807f713          	andi	a4,a5,128
    182a:	d72d                	beqz	a4,1794 <__swsetup_r+0x50>
    182c:	0407e793          	ori	a5,a5,64
    1830:	a45e                	fsd	fs7,8(sp)
    1832:	b785                	j	1792 <__swsetup_r+0x4e>
    1834:	8b89                	andi	a5,a5,2
    1836:	4701                	li	a4,0
    1838:	e391                	bnez	a5,183c <__swsetup_r+0xf8>
    183a:	4858                	lw	a4,20(s0)
    183c:	c418                	sw	a4,8(s0)
    183e:	bff9                	j	181c <__swsetup_r+0xd8>

00001840 <__sflush_r>:
    1840:	25de                	fld	fa1,464(sp)
    1842:	1101                	addi	sp,sp,-32
    1844:	cc22                	sw	s0,24(sp)
    1846:	ca26                	sw	s1,20(sp)
    1848:	ce06                	sw	ra,28(sp)
    184a:	c84a                	sw	s2,16(sp)
    184c:	c64e                	sw	s3,12(sp)
    184e:	0087f713          	andi	a4,a5,8
    1852:	84aa                	mv	s1,a0
    1854:	842e                	mv	s0,a1
    1856:	eb79                	bnez	a4,192c <__sflush_r+0xec>
    1858:	41d8                	lw	a4,4(a1)
    185a:	00e04d63          	bgtz	a4,1874 <__sflush_r+0x34>
    185e:	41b8                	lw	a4,64(a1)
    1860:	00e04a63          	bgtz	a4,1874 <__sflush_r+0x34>
    1864:	4501                	li	a0,0
    1866:	40f2                	lw	ra,28(sp)
    1868:	4462                	lw	s0,24(sp)
    186a:	44d2                	lw	s1,20(sp)
    186c:	4942                	lw	s2,16(sp)
    186e:	49b2                	lw	s3,12(sp)
    1870:	6105                	addi	sp,sp,32
    1872:	8082                	ret
    1874:	5458                	lw	a4,44(s0)
    1876:	d77d                	beqz	a4,1864 <__sflush_r+0x24>
    1878:	0004a903          	lw	s2,0(s1)
    187c:	01379693          	slli	a3,a5,0x13
    1880:	0004a023          	sw	zero,0(s1)
    1884:	0606db63          	bgez	a3,18fa <__sflush_r+0xba>
    1888:	4870                	lw	a2,84(s0)
    188a:	245e                	fld	fs0,464(sp)
    188c:	8b91                	andi	a5,a5,4
    188e:	c799                	beqz	a5,189c <__sflush_r+0x5c>
    1890:	405c                	lw	a5,4(s0)
    1892:	8e1d                	sub	a2,a2,a5
    1894:	585c                	lw	a5,52(s0)
    1896:	c399                	beqz	a5,189c <__sflush_r+0x5c>
    1898:	403c                	lw	a5,64(s0)
    189a:	8e1d                	sub	a2,a2,a5
    189c:	545c                	lw	a5,44(s0)
    189e:	500c                	lw	a1,32(s0)
    18a0:	4681                	li	a3,0
    18a2:	8526                	mv	a0,s1
    18a4:	9782                	jalr	a5
    18a6:	57fd                	li	a5,-1
    18a8:	245a                	fld	fs0,400(sp)
    18aa:	00f51d63          	bne	a0,a5,18c4 <__sflush_r+0x84>
    18ae:	4094                	lw	a3,0(s1)
    18b0:	47f5                	li	a5,29
    18b2:	06d7e863          	bltu	a5,a3,1922 <__sflush_r+0xe2>
    18b6:	204007b7          	lui	a5,0x20400
    18ba:	0785                	addi	a5,a5,1
    18bc:	00d7d7b3          	srl	a5,a5,a3
    18c0:	8b85                	andi	a5,a5,1
    18c2:	c3a5                	beqz	a5,1922 <__sflush_r+0xe2>
    18c4:	481c                	lw	a5,16(s0)
    18c6:	00042223          	sw	zero,4(s0)
    18ca:	c01c                	sw	a5,0(s0)
    18cc:	01371793          	slli	a5,a4,0x13
    18d0:	0007d863          	bgez	a5,18e0 <__sflush_r+0xa0>
    18d4:	57fd                	li	a5,-1
    18d6:	00f51463          	bne	a0,a5,18de <__sflush_r+0x9e>
    18da:	409c                	lw	a5,0(s1)
    18dc:	e391                	bnez	a5,18e0 <__sflush_r+0xa0>
    18de:	c868                	sw	a0,84(s0)
    18e0:	584c                	lw	a1,52(s0)
    18e2:	0124a023          	sw	s2,0(s1)
    18e6:	ddbd                	beqz	a1,1864 <__sflush_r+0x24>
    18e8:	04440793          	addi	a5,s0,68
    18ec:	00f58463          	beq	a1,a5,18f4 <__sflush_r+0xb4>
    18f0:	8526                	mv	a0,s1
    18f2:	26f5                	jal	1cde <_free_r>
    18f4:	02042a23          	sw	zero,52(s0)
    18f8:	b7b5                	j	1864 <__sflush_r+0x24>
    18fa:	500c                	lw	a1,32(s0)
    18fc:	4601                	li	a2,0
    18fe:	4685                	li	a3,1
    1900:	8526                	mv	a0,s1
    1902:	9702                	jalr	a4
    1904:	57fd                	li	a5,-1
    1906:	862a                	mv	a2,a0
    1908:	f8f511e3          	bne	a0,a5,188a <__sflush_r+0x4a>
    190c:	409c                	lw	a5,0(s1)
    190e:	dfb5                	beqz	a5,188a <__sflush_r+0x4a>
    1910:	4775                	li	a4,29
    1912:	00e78563          	beq	a5,a4,191c <__sflush_r+0xdc>
    1916:	4759                	li	a4,22
    1918:	04e79363          	bne	a5,a4,195e <__sflush_r+0x11e>
    191c:	0124a023          	sw	s2,0(s1)
    1920:	b791                	j	1864 <__sflush_r+0x24>
    1922:	04076713          	ori	a4,a4,64
    1926:	a45a                	fsd	fs6,8(sp)
    1928:	557d                	li	a0,-1
    192a:	bf35                	j	1866 <__sflush_r+0x26>
    192c:	0105a983          	lw	s3,16(a1)
    1930:	f2098ae3          	beqz	s3,1864 <__sflush_r+0x24>
    1934:	0005a903          	lw	s2,0(a1)
    1938:	8b8d                	andi	a5,a5,3
    193a:	0135a023          	sw	s3,0(a1)
    193e:	41390933          	sub	s2,s2,s3
    1942:	4701                	li	a4,0
    1944:	e391                	bnez	a5,1948 <__sflush_r+0x108>
    1946:	49d8                	lw	a4,20(a1)
    1948:	c418                	sw	a4,8(s0)
    194a:	f1205de3          	blez	s2,1864 <__sflush_r+0x24>
    194e:	541c                	lw	a5,40(s0)
    1950:	500c                	lw	a1,32(s0)
    1952:	86ca                	mv	a3,s2
    1954:	864e                	mv	a2,s3
    1956:	8526                	mv	a0,s1
    1958:	9782                	jalr	a5
    195a:	00a04763          	bgtz	a0,1968 <__sflush_r+0x128>
    195e:	245e                	fld	fs0,464(sp)
    1960:	0407e793          	ori	a5,a5,64
    1964:	a45e                	fsd	fs7,8(sp)
    1966:	b7c9                	j	1928 <__sflush_r+0xe8>
    1968:	99aa                	add	s3,s3,a0
    196a:	40a90933          	sub	s2,s2,a0
    196e:	bff1                	j	194a <__sflush_r+0x10a>

00001970 <_fflush_r>:
    1970:	499c                	lw	a5,16(a1)
    1972:	cfb9                	beqz	a5,19d0 <_fflush_r+0x60>
    1974:	1101                	addi	sp,sp,-32
    1976:	cc22                	sw	s0,24(sp)
    1978:	ce06                	sw	ra,28(sp)
    197a:	842a                	mv	s0,a0
    197c:	c511                	beqz	a0,1988 <_fflush_r+0x18>
    197e:	4d1c                	lw	a5,24(a0)
    1980:	e781                	bnez	a5,1988 <_fflush_r+0x18>
    1982:	c62e                	sw	a1,12(sp)
    1984:	2219                	jal	1a8a <__sinit>
    1986:	45b2                	lw	a1,12(sp)
    1988:	00001797          	auipc	a5,0x1
    198c:	18478793          	addi	a5,a5,388 # 2b0c <__sf_fake_stdin>
    1990:	00f59b63          	bne	a1,a5,19a6 <_fflush_r+0x36>
    1994:	404c                	lw	a1,4(s0)
    1996:	00c59783          	lh	a5,12(a1)
    199a:	c795                	beqz	a5,19c6 <_fflush_r+0x56>
    199c:	8522                	mv	a0,s0
    199e:	4462                	lw	s0,24(sp)
    19a0:	40f2                	lw	ra,28(sp)
    19a2:	6105                	addi	sp,sp,32
    19a4:	bd71                	j	1840 <__sflush_r>
    19a6:	00001797          	auipc	a5,0x1
    19aa:	18678793          	addi	a5,a5,390 # 2b2c <__sf_fake_stdout>
    19ae:	00f59463          	bne	a1,a5,19b6 <_fflush_r+0x46>
    19b2:	440c                	lw	a1,8(s0)
    19b4:	b7cd                	j	1996 <_fflush_r+0x26>
    19b6:	00001797          	auipc	a5,0x1
    19ba:	13678793          	addi	a5,a5,310 # 2aec <__sf_fake_stderr>
    19be:	fcf59ce3          	bne	a1,a5,1996 <_fflush_r+0x26>
    19c2:	444c                	lw	a1,12(s0)
    19c4:	bfc9                	j	1996 <_fflush_r+0x26>
    19c6:	40f2                	lw	ra,28(sp)
    19c8:	4462                	lw	s0,24(sp)
    19ca:	4501                	li	a0,0
    19cc:	6105                	addi	sp,sp,32
    19ce:	8082                	ret
    19d0:	4501                	li	a0,0
    19d2:	8082                	ret

000019d4 <std>:
    19d4:	1141                	addi	sp,sp,-16
    19d6:	c422                	sw	s0,8(sp)
    19d8:	c606                	sw	ra,12(sp)
    19da:	842a                	mv	s0,a0
    19dc:	a54e                	fsd	fs3,136(sp)
    19de:	a572                	fsd	ft8,136(sp)
    19e0:	00052023          	sw	zero,0(a0)
    19e4:	00052223          	sw	zero,4(a0)
    19e8:	00052423          	sw	zero,8(a0)
    19ec:	06052223          	sw	zero,100(a0)
    19f0:	00052823          	sw	zero,16(a0)
    19f4:	00052a23          	sw	zero,20(a0)
    19f8:	00052c23          	sw	zero,24(a0)
    19fc:	4621                	li	a2,8
    19fe:	4581                	li	a1,0
    1a00:	05c50513          	addi	a0,a0,92
    1a04:	ffcfe0ef          	jal	ra,200 <memset>
    1a08:	00001797          	auipc	a5,0x1
    1a0c:	b9e78793          	addi	a5,a5,-1122 # 25a6 <__sread>
    1a10:	d05c                	sw	a5,36(s0)
    1a12:	00001797          	auipc	a5,0x1
    1a16:	bc078793          	addi	a5,a5,-1088 # 25d2 <__swrite>
    1a1a:	d41c                	sw	a5,40(s0)
    1a1c:	00001797          	auipc	a5,0x1
    1a20:	bfe78793          	addi	a5,a5,-1026 # 261a <__sseek>
    1a24:	d45c                	sw	a5,44(s0)
    1a26:	00001797          	auipc	a5,0x1
    1a2a:	c2478793          	addi	a5,a5,-988 # 264a <__sclose>
    1a2e:	d000                	sw	s0,32(s0)
    1a30:	d81c                	sw	a5,48(s0)
    1a32:	40b2                	lw	ra,12(sp)
    1a34:	4422                	lw	s0,8(sp)
    1a36:	0141                	addi	sp,sp,16
    1a38:	8082                	ret

00001a3a <_cleanup_r>:
    1a3a:	00000597          	auipc	a1,0x0
    1a3e:	f3658593          	addi	a1,a1,-202 # 1970 <_fflush_r>
    1a42:	a2a9                	j	1b8c <_fwalk_reent>

00001a44 <__sfmoreglue>:
    1a44:	1141                	addi	sp,sp,-16
    1a46:	c226                	sw	s1,4(sp)
    1a48:	06800613          	li	a2,104
    1a4c:	fff58493          	addi	s1,a1,-1
    1a50:	02c484b3          	mul	s1,s1,a2
    1a54:	c04a                	sw	s2,0(sp)
    1a56:	892e                	mv	s2,a1
    1a58:	c422                	sw	s0,8(sp)
    1a5a:	c606                	sw	ra,12(sp)
    1a5c:	07448593          	addi	a1,s1,116
    1a60:	261d                	jal	1d86 <_malloc_r>
    1a62:	842a                	mv	s0,a0
    1a64:	cd01                	beqz	a0,1a7c <__sfmoreglue+0x38>
    1a66:	00052023          	sw	zero,0(a0)
    1a6a:	01252223          	sw	s2,4(a0)
    1a6e:	0531                	addi	a0,a0,12
    1a70:	c408                	sw	a0,8(s0)
    1a72:	06848613          	addi	a2,s1,104
    1a76:	4581                	li	a1,0
    1a78:	f88fe0ef          	jal	ra,200 <memset>
    1a7c:	8522                	mv	a0,s0
    1a7e:	40b2                	lw	ra,12(sp)
    1a80:	4422                	lw	s0,8(sp)
    1a82:	4492                	lw	s1,4(sp)
    1a84:	4902                	lw	s2,0(sp)
    1a86:	0141                	addi	sp,sp,16
    1a88:	8082                	ret

00001a8a <__sinit>:
    1a8a:	4d1c                	lw	a5,24(a0)
    1a8c:	e3ad                	bnez	a5,1aee <__sinit+0x64>
    1a8e:	1141                	addi	sp,sp,-16
    1a90:	c606                	sw	ra,12(sp)
    1a92:	c422                	sw	s0,8(sp)
    1a94:	00000797          	auipc	a5,0x0
    1a98:	fa678793          	addi	a5,a5,-90 # 1a3a <_cleanup_r>
    1a9c:	d51c                	sw	a5,40(a0)
    1a9e:	80c18793          	addi	a5,gp,-2036 # 2000008c <_global_impure_ptr>
    1aa2:	439c                	lw	a5,0(a5)
    1aa4:	04052423          	sw	zero,72(a0)
    1aa8:	04052623          	sw	zero,76(a0)
    1aac:	04052823          	sw	zero,80(a0)
    1ab0:	00f51463          	bne	a0,a5,1ab8 <__sinit+0x2e>
    1ab4:	4785                	li	a5,1
    1ab6:	cd1c                	sw	a5,24(a0)
    1ab8:	842a                	mv	s0,a0
    1aba:	281d                	jal	1af0 <__sfp>
    1abc:	c048                	sw	a0,4(s0)
    1abe:	8522                	mv	a0,s0
    1ac0:	2805                	jal	1af0 <__sfp>
    1ac2:	c408                	sw	a0,8(s0)
    1ac4:	8522                	mv	a0,s0
    1ac6:	202d                	jal	1af0 <__sfp>
    1ac8:	c448                	sw	a0,12(s0)
    1aca:	4048                	lw	a0,4(s0)
    1acc:	4601                	li	a2,0
    1ace:	4591                	li	a1,4
    1ad0:	3711                	jal	19d4 <std>
    1ad2:	4408                	lw	a0,8(s0)
    1ad4:	4605                	li	a2,1
    1ad6:	45a5                	li	a1,9
    1ad8:	3df5                	jal	19d4 <std>
    1ada:	4448                	lw	a0,12(s0)
    1adc:	4609                	li	a2,2
    1ade:	45c9                	li	a1,18
    1ae0:	3dd5                	jal	19d4 <std>
    1ae2:	4785                	li	a5,1
    1ae4:	cc1c                	sw	a5,24(s0)
    1ae6:	40b2                	lw	ra,12(sp)
    1ae8:	4422                	lw	s0,8(sp)
    1aea:	0141                	addi	sp,sp,16
    1aec:	8082                	ret
    1aee:	8082                	ret

00001af0 <__sfp>:
    1af0:	1141                	addi	sp,sp,-16
    1af2:	80c18793          	addi	a5,gp,-2036 # 2000008c <_global_impure_ptr>
    1af6:	c226                	sw	s1,4(sp)
    1af8:	4384                	lw	s1,0(a5)
    1afa:	c04a                	sw	s2,0(sp)
    1afc:	c606                	sw	ra,12(sp)
    1afe:	4c9c                	lw	a5,24(s1)
    1b00:	c422                	sw	s0,8(sp)
    1b02:	892a                	mv	s2,a0
    1b04:	e399                	bnez	a5,1b0a <__sfp+0x1a>
    1b06:	8526                	mv	a0,s1
    1b08:	3749                	jal	1a8a <__sinit>
    1b0a:	04848493          	addi	s1,s1,72
    1b0e:	4480                	lw	s0,8(s1)
    1b10:	40dc                	lw	a5,4(s1)
    1b12:	17fd                	addi	a5,a5,-1
    1b14:	0007d663          	bgez	a5,1b20 <__sfp+0x30>
    1b18:	409c                	lw	a5,0(s1)
    1b1a:	cfb9                	beqz	a5,1b78 <__sfp+0x88>
    1b1c:	4084                	lw	s1,0(s1)
    1b1e:	bfc5                	j	1b0e <__sfp+0x1e>
    1b20:	00c41703          	lh	a4,12(s0)
    1b24:	e739                	bnez	a4,1b72 <__sfp+0x82>
    1b26:	77c1                	lui	a5,0xffff0
    1b28:	0785                	addi	a5,a5,1
    1b2a:	06042223          	sw	zero,100(s0)
    1b2e:	00042023          	sw	zero,0(s0)
    1b32:	00042223          	sw	zero,4(s0)
    1b36:	00042423          	sw	zero,8(s0)
    1b3a:	c45c                	sw	a5,12(s0)
    1b3c:	00042823          	sw	zero,16(s0)
    1b40:	00042a23          	sw	zero,20(s0)
    1b44:	00042c23          	sw	zero,24(s0)
    1b48:	4621                	li	a2,8
    1b4a:	4581                	li	a1,0
    1b4c:	05c40513          	addi	a0,s0,92
    1b50:	eb0fe0ef          	jal	ra,200 <memset>
    1b54:	02042a23          	sw	zero,52(s0)
    1b58:	02042c23          	sw	zero,56(s0)
    1b5c:	04042423          	sw	zero,72(s0)
    1b60:	04042623          	sw	zero,76(s0)
    1b64:	8522                	mv	a0,s0
    1b66:	40b2                	lw	ra,12(sp)
    1b68:	4422                	lw	s0,8(sp)
    1b6a:	4492                	lw	s1,4(sp)
    1b6c:	4902                	lw	s2,0(sp)
    1b6e:	0141                	addi	sp,sp,16
    1b70:	8082                	ret
    1b72:	06840413          	addi	s0,s0,104
    1b76:	bf71                	j	1b12 <__sfp+0x22>
    1b78:	4591                	li	a1,4
    1b7a:	854a                	mv	a0,s2
    1b7c:	35e1                	jal	1a44 <__sfmoreglue>
    1b7e:	c088                	sw	a0,0(s1)
    1b80:	fd51                	bnez	a0,1b1c <__sfp+0x2c>
    1b82:	47b1                	li	a5,12
    1b84:	00f92023          	sw	a5,0(s2)
    1b88:	4401                	li	s0,0
    1b8a:	bfe9                	j	1b64 <__sfp+0x74>

00001b8c <_fwalk_reent>:
    1b8c:	7179                	addi	sp,sp,-48
    1b8e:	d422                	sw	s0,40(sp)
    1b90:	d04a                	sw	s2,32(sp)
    1b92:	cc52                	sw	s4,24(sp)
    1b94:	ca56                	sw	s5,20(sp)
    1b96:	c85a                	sw	s6,16(sp)
    1b98:	c65e                	sw	s7,12(sp)
    1b9a:	d606                	sw	ra,44(sp)
    1b9c:	d226                	sw	s1,36(sp)
    1b9e:	ce4e                	sw	s3,28(sp)
    1ba0:	8a2a                	mv	s4,a0
    1ba2:	8aae                	mv	s5,a1
    1ba4:	04850413          	addi	s0,a0,72
    1ba8:	4901                	li	s2,0
    1baa:	4b05                	li	s6,1
    1bac:	5bfd                	li	s7,-1
    1bae:	ec09                	bnez	s0,1bc8 <_fwalk_reent+0x3c>
    1bb0:	50b2                	lw	ra,44(sp)
    1bb2:	5422                	lw	s0,40(sp)
    1bb4:	854a                	mv	a0,s2
    1bb6:	5492                	lw	s1,36(sp)
    1bb8:	5902                	lw	s2,32(sp)
    1bba:	49f2                	lw	s3,28(sp)
    1bbc:	4a62                	lw	s4,24(sp)
    1bbe:	4ad2                	lw	s5,20(sp)
    1bc0:	4b42                	lw	s6,16(sp)
    1bc2:	4bb2                	lw	s7,12(sp)
    1bc4:	6145                	addi	sp,sp,48
    1bc6:	8082                	ret
    1bc8:	4404                	lw	s1,8(s0)
    1bca:	00442983          	lw	s3,4(s0)
    1bce:	19fd                	addi	s3,s3,-1
    1bd0:	0009d463          	bgez	s3,1bd8 <_fwalk_reent+0x4c>
    1bd4:	4000                	lw	s0,0(s0)
    1bd6:	bfe1                	j	1bae <_fwalk_reent+0x22>
    1bd8:	24de                	fld	fs1,464(sp)
    1bda:	00fb7b63          	bgeu	s6,a5,1bf0 <_fwalk_reent+0x64>
    1bde:	00e49783          	lh	a5,14(s1)
    1be2:	01778763          	beq	a5,s7,1bf0 <_fwalk_reent+0x64>
    1be6:	85a6                	mv	a1,s1
    1be8:	8552                	mv	a0,s4
    1bea:	9a82                	jalr	s5
    1bec:	00a96933          	or	s2,s2,a0
    1bf0:	06848493          	addi	s1,s1,104
    1bf4:	bfe9                	j	1bce <_fwalk_reent+0x42>

00001bf6 <__swhatbuf_r>:
    1bf6:	7119                	addi	sp,sp,-128
    1bf8:	daa6                	sw	s1,116(sp)
    1bfa:	84ae                	mv	s1,a1
    1bfc:	00e59583          	lh	a1,14(a1)
    1c00:	dca2                	sw	s0,120(sp)
    1c02:	de86                	sw	ra,124(sp)
    1c04:	8432                	mv	s0,a2
    1c06:	0005db63          	bgez	a1,1c1c <__swhatbuf_r+0x26>
    1c0a:	24de                	fld	fs1,464(sp)
    1c0c:	0006a023          	sw	zero,0(a3)
    1c10:	0807f793          	andi	a5,a5,128
    1c14:	e785                	bnez	a5,1c3c <__swhatbuf_r+0x46>
    1c16:	40000793          	li	a5,1024
    1c1a:	a01d                	j	1c40 <__swhatbuf_r+0x4a>
    1c1c:	0830                	addi	a2,sp,24
    1c1e:	c636                	sw	a3,12(sp)
    1c20:	287000ef          	jal	ra,26a6 <_fstat_r>
    1c24:	46b2                	lw	a3,12(sp)
    1c26:	fe0542e3          	bltz	a0,1c0a <__swhatbuf_r+0x14>
    1c2a:	4772                	lw	a4,28(sp)
    1c2c:	67bd                	lui	a5,0xf
    1c2e:	8ff9                	and	a5,a5,a4
    1c30:	7779                	lui	a4,0xffffe
    1c32:	97ba                	add	a5,a5,a4
    1c34:	0017b793          	seqz	a5,a5
    1c38:	c29c                	sw	a5,0(a3)
    1c3a:	bff1                	j	1c16 <__swhatbuf_r+0x20>
    1c3c:	04000793          	li	a5,64
    1c40:	c01c                	sw	a5,0(s0)
    1c42:	50f6                	lw	ra,124(sp)
    1c44:	5466                	lw	s0,120(sp)
    1c46:	54d6                	lw	s1,116(sp)
    1c48:	4501                	li	a0,0
    1c4a:	6109                	addi	sp,sp,128
    1c4c:	8082                	ret

00001c4e <__smakebuf_r>:
    1c4e:	25de                	fld	fa1,464(sp)
    1c50:	1101                	addi	sp,sp,-32
    1c52:	cc22                	sw	s0,24(sp)
    1c54:	ce06                	sw	ra,28(sp)
    1c56:	ca26                	sw	s1,20(sp)
    1c58:	c84a                	sw	s2,16(sp)
    1c5a:	8b89                	andi	a5,a5,2
    1c5c:	842e                	mv	s0,a1
    1c5e:	cf89                	beqz	a5,1c78 <__smakebuf_r+0x2a>
    1c60:	04740793          	addi	a5,s0,71
    1c64:	c01c                	sw	a5,0(s0)
    1c66:	c81c                	sw	a5,16(s0)
    1c68:	4785                	li	a5,1
    1c6a:	c85c                	sw	a5,20(s0)
    1c6c:	40f2                	lw	ra,28(sp)
    1c6e:	4462                	lw	s0,24(sp)
    1c70:	44d2                	lw	s1,20(sp)
    1c72:	4942                	lw	s2,16(sp)
    1c74:	6105                	addi	sp,sp,32
    1c76:	8082                	ret
    1c78:	0074                	addi	a3,sp,12
    1c7a:	0030                	addi	a2,sp,8
    1c7c:	84aa                	mv	s1,a0
    1c7e:	3fa5                	jal	1bf6 <__swhatbuf_r>
    1c80:	45a2                	lw	a1,8(sp)
    1c82:	892a                	mv	s2,a0
    1c84:	8526                	mv	a0,s1
    1c86:	2201                	jal	1d86 <_malloc_r>
    1c88:	e919                	bnez	a0,1c9e <__smakebuf_r+0x50>
    1c8a:	00c41783          	lh	a5,12(s0)
    1c8e:	2007f713          	andi	a4,a5,512
    1c92:	ff69                	bnez	a4,1c6c <__smakebuf_r+0x1e>
    1c94:	9bf1                	andi	a5,a5,-4
    1c96:	0027e793          	ori	a5,a5,2
    1c9a:	a45e                	fsd	fs7,8(sp)
    1c9c:	b7d1                	j	1c60 <__smakebuf_r+0x12>
    1c9e:	00000797          	auipc	a5,0x0
    1ca2:	d9c78793          	addi	a5,a5,-612 # 1a3a <_cleanup_r>
    1ca6:	d49c                	sw	a5,40(s1)
    1ca8:	245e                	fld	fs0,464(sp)
    1caa:	c008                	sw	a0,0(s0)
    1cac:	c808                	sw	a0,16(s0)
    1cae:	0807e793          	ori	a5,a5,128
    1cb2:	a45e                	fsd	fs7,8(sp)
    1cb4:	47a2                	lw	a5,8(sp)
    1cb6:	c85c                	sw	a5,20(s0)
    1cb8:	47b2                	lw	a5,12(sp)
    1cba:	cf81                	beqz	a5,1cd2 <__smakebuf_r+0x84>
    1cbc:	00e41583          	lh	a1,14(s0)
    1cc0:	8526                	mv	a0,s1
    1cc2:	20f000ef          	jal	ra,26d0 <_isatty_r>
    1cc6:	c511                	beqz	a0,1cd2 <__smakebuf_r+0x84>
    1cc8:	245e                	fld	fs0,464(sp)
    1cca:	9bf1                	andi	a5,a5,-4
    1ccc:	0017e793          	ori	a5,a5,1
    1cd0:	a45e                	fsd	fs7,8(sp)
    1cd2:	245e                	fld	fs0,464(sp)
    1cd4:	00f96933          	or	s2,s2,a5
    1cd8:	01241623          	sh	s2,12(s0)
    1cdc:	bf41                	j	1c6c <__smakebuf_r+0x1e>

00001cde <_free_r>:
    1cde:	c1dd                	beqz	a1,1d84 <_free_r+0xa6>
    1ce0:	ffc5a783          	lw	a5,-4(a1)
    1ce4:	1141                	addi	sp,sp,-16
    1ce6:	c422                	sw	s0,8(sp)
    1ce8:	c606                	sw	ra,12(sp)
    1cea:	c226                	sw	s1,4(sp)
    1cec:	ffc58413          	addi	s0,a1,-4
    1cf0:	0007d363          	bgez	a5,1cf6 <_free_r+0x18>
    1cf4:	943e                	add	s0,s0,a5
    1cf6:	84aa                	mv	s1,a0
    1cf8:	245000ef          	jal	ra,273c <__malloc_lock>
    1cfc:	81c18793          	addi	a5,gp,-2020 # 2000009c <__malloc_free_list>
    1d00:	439c                	lw	a5,0(a5)
    1d02:	ef81                	bnez	a5,1d1a <_free_r+0x3c>
    1d04:	00042223          	sw	zero,4(s0)
    1d08:	8081ae23          	sw	s0,-2020(gp) # 2000009c <__malloc_free_list>
    1d0c:	4422                	lw	s0,8(sp)
    1d0e:	40b2                	lw	ra,12(sp)
    1d10:	8526                	mv	a0,s1
    1d12:	4492                	lw	s1,4(sp)
    1d14:	0141                	addi	sp,sp,16
    1d16:	2290006f          	j	273e <__malloc_unlock>
    1d1a:	00f47e63          	bgeu	s0,a5,1d36 <_free_r+0x58>
    1d1e:	4014                	lw	a3,0(s0)
    1d20:	00d40733          	add	a4,s0,a3
    1d24:	00e79663          	bne	a5,a4,1d30 <_free_r+0x52>
    1d28:	4398                	lw	a4,0(a5)
    1d2a:	43dc                	lw	a5,4(a5)
    1d2c:	9736                	add	a4,a4,a3
    1d2e:	c018                	sw	a4,0(s0)
    1d30:	c05c                	sw	a5,4(s0)
    1d32:	bfd9                	j	1d08 <_free_r+0x2a>
    1d34:	87ba                	mv	a5,a4
    1d36:	43d8                	lw	a4,4(a5)
    1d38:	c319                	beqz	a4,1d3e <_free_r+0x60>
    1d3a:	fee47de3          	bgeu	s0,a4,1d34 <_free_r+0x56>
    1d3e:	4394                	lw	a3,0(a5)
    1d40:	00d78633          	add	a2,a5,a3
    1d44:	00861f63          	bne	a2,s0,1d62 <_free_r+0x84>
    1d48:	4010                	lw	a2,0(s0)
    1d4a:	96b2                	add	a3,a3,a2
    1d4c:	c394                	sw	a3,0(a5)
    1d4e:	00d78633          	add	a2,a5,a3
    1d52:	fac71de3          	bne	a4,a2,1d0c <_free_r+0x2e>
    1d56:	4310                	lw	a2,0(a4)
    1d58:	4358                	lw	a4,4(a4)
    1d5a:	96b2                	add	a3,a3,a2
    1d5c:	c394                	sw	a3,0(a5)
    1d5e:	c3d8                	sw	a4,4(a5)
    1d60:	b775                	j	1d0c <_free_r+0x2e>
    1d62:	00c47563          	bgeu	s0,a2,1d6c <_free_r+0x8e>
    1d66:	47b1                	li	a5,12
    1d68:	c09c                	sw	a5,0(s1)
    1d6a:	b74d                	j	1d0c <_free_r+0x2e>
    1d6c:	4010                	lw	a2,0(s0)
    1d6e:	00c406b3          	add	a3,s0,a2
    1d72:	00d71663          	bne	a4,a3,1d7e <_free_r+0xa0>
    1d76:	4314                	lw	a3,0(a4)
    1d78:	4358                	lw	a4,4(a4)
    1d7a:	96b2                	add	a3,a3,a2
    1d7c:	c014                	sw	a3,0(s0)
    1d7e:	c058                	sw	a4,4(s0)
    1d80:	c3c0                	sw	s0,4(a5)
    1d82:	b769                	j	1d0c <_free_r+0x2e>
    1d84:	8082                	ret

00001d86 <_malloc_r>:
    1d86:	1101                	addi	sp,sp,-32
    1d88:	ca26                	sw	s1,20(sp)
    1d8a:	00358493          	addi	s1,a1,3
    1d8e:	98f1                	andi	s1,s1,-4
    1d90:	ce06                	sw	ra,28(sp)
    1d92:	cc22                	sw	s0,24(sp)
    1d94:	c84a                	sw	s2,16(sp)
    1d96:	c64e                	sw	s3,12(sp)
    1d98:	04a1                	addi	s1,s1,8
    1d9a:	47b1                	li	a5,12
    1d9c:	04f4f563          	bgeu	s1,a5,1de6 <_malloc_r+0x60>
    1da0:	44b1                	li	s1,12
    1da2:	04b4e463          	bltu	s1,a1,1dea <_malloc_r+0x64>
    1da6:	892a                	mv	s2,a0
    1da8:	195000ef          	jal	ra,273c <__malloc_lock>
    1dac:	81c18793          	addi	a5,gp,-2020 # 2000009c <__malloc_free_list>
    1db0:	4398                	lw	a4,0(a5)
    1db2:	843a                	mv	s0,a4
    1db4:	e429                	bnez	s0,1dfe <_malloc_r+0x78>
    1db6:	82018793          	addi	a5,gp,-2016 # 200000a0 <__malloc_sbrk_start>
    1dba:	439c                	lw	a5,0(a5)
    1dbc:	e799                	bnez	a5,1dca <_malloc_r+0x44>
    1dbe:	4581                	li	a1,0
    1dc0:	854a                	mv	a0,s2
    1dc2:	7ba000ef          	jal	ra,257c <_sbrk_r>
    1dc6:	82a1a023          	sw	a0,-2016(gp) # 200000a0 <__malloc_sbrk_start>
    1dca:	85a6                	mv	a1,s1
    1dcc:	854a                	mv	a0,s2
    1dce:	7ae000ef          	jal	ra,257c <_sbrk_r>
    1dd2:	59fd                	li	s3,-1
    1dd4:	07351963          	bne	a0,s3,1e46 <_malloc_r+0xc0>
    1dd8:	47b1                	li	a5,12
    1dda:	00f92023          	sw	a5,0(s2)
    1dde:	854a                	mv	a0,s2
    1de0:	15f000ef          	jal	ra,273e <__malloc_unlock>
    1de4:	a029                	j	1dee <_malloc_r+0x68>
    1de6:	fa04dee3          	bgez	s1,1da2 <_malloc_r+0x1c>
    1dea:	47b1                	li	a5,12
    1dec:	c11c                	sw	a5,0(a0)
    1dee:	4501                	li	a0,0
    1df0:	40f2                	lw	ra,28(sp)
    1df2:	4462                	lw	s0,24(sp)
    1df4:	44d2                	lw	s1,20(sp)
    1df6:	4942                	lw	s2,16(sp)
    1df8:	49b2                	lw	s3,12(sp)
    1dfa:	6105                	addi	sp,sp,32
    1dfc:	8082                	ret
    1dfe:	401c                	lw	a5,0(s0)
    1e00:	8f85                	sub	a5,a5,s1
    1e02:	0207cf63          	bltz	a5,1e40 <_malloc_r+0xba>
    1e06:	46ad                	li	a3,11
    1e08:	00f6f663          	bgeu	a3,a5,1e14 <_malloc_r+0x8e>
    1e0c:	c01c                	sw	a5,0(s0)
    1e0e:	943e                	add	s0,s0,a5
    1e10:	c004                	sw	s1,0(s0)
    1e12:	a031                	j	1e1e <_malloc_r+0x98>
    1e14:	405c                	lw	a5,4(s0)
    1e16:	02871363          	bne	a4,s0,1e3c <_malloc_r+0xb6>
    1e1a:	80f1ae23          	sw	a5,-2020(gp) # 2000009c <__malloc_free_list>
    1e1e:	854a                	mv	a0,s2
    1e20:	11f000ef          	jal	ra,273e <__malloc_unlock>
    1e24:	00b40513          	addi	a0,s0,11
    1e28:	00440793          	addi	a5,s0,4
    1e2c:	9961                	andi	a0,a0,-8
    1e2e:	40f50733          	sub	a4,a0,a5
    1e32:	df5d                	beqz	a4,1df0 <_malloc_r+0x6a>
    1e34:	943a                	add	s0,s0,a4
    1e36:	8f89                	sub	a5,a5,a0
    1e38:	c01c                	sw	a5,0(s0)
    1e3a:	bf5d                	j	1df0 <_malloc_r+0x6a>
    1e3c:	c35c                	sw	a5,4(a4)
    1e3e:	b7c5                	j	1e1e <_malloc_r+0x98>
    1e40:	8722                	mv	a4,s0
    1e42:	4040                	lw	s0,4(s0)
    1e44:	bf85                	j	1db4 <_malloc_r+0x2e>
    1e46:	00350413          	addi	s0,a0,3
    1e4a:	9871                	andi	s0,s0,-4
    1e4c:	fc8502e3          	beq	a0,s0,1e10 <_malloc_r+0x8a>
    1e50:	40a405b3          	sub	a1,s0,a0
    1e54:	854a                	mv	a0,s2
    1e56:	271d                	jal	257c <_sbrk_r>
    1e58:	fb351ce3          	bne	a0,s3,1e10 <_malloc_r+0x8a>
    1e5c:	bfb5                	j	1dd8 <_malloc_r+0x52>

00001e5e <__sfputc_r>:
    1e5e:	461c                	lw	a5,8(a2)
    1e60:	17fd                	addi	a5,a5,-1
    1e62:	c61c                	sw	a5,8(a2)
    1e64:	0007da63          	bgez	a5,1e78 <__sfputc_r+0x1a>
    1e68:	4e18                	lw	a4,24(a2)
    1e6a:	00e7c563          	blt	a5,a4,1e74 <__sfputc_r+0x16>
    1e6e:	47a9                	li	a5,10
    1e70:	00f59463          	bne	a1,a5,1e78 <__sfputc_r+0x1a>
    1e74:	815ff06f          	j	1688 <__swbuf_r>
    1e78:	421c                	lw	a5,0(a2)
    1e7a:	852e                	mv	a0,a1
    1e7c:	00178713          	addi	a4,a5,1
    1e80:	c218                	sw	a4,0(a2)
    1e82:	a38c                	fsd	fa1,0(a5)
    1e84:	8082                	ret

00001e86 <__sfputs_r>:
    1e86:	1101                	addi	sp,sp,-32
    1e88:	cc22                	sw	s0,24(sp)
    1e8a:	ca26                	sw	s1,20(sp)
    1e8c:	c84a                	sw	s2,16(sp)
    1e8e:	c64e                	sw	s3,12(sp)
    1e90:	c452                	sw	s4,8(sp)
    1e92:	ce06                	sw	ra,28(sp)
    1e94:	892a                	mv	s2,a0
    1e96:	89ae                	mv	s3,a1
    1e98:	8432                	mv	s0,a2
    1e9a:	00d604b3          	add	s1,a2,a3
    1e9e:	5a7d                	li	s4,-1
    1ea0:	00941463          	bne	s0,s1,1ea8 <__sfputs_r+0x22>
    1ea4:	4501                	li	a0,0
    1ea6:	a801                	j	1eb6 <__sfputs_r+0x30>
    1ea8:	200c                	fld	fa1,0(s0)
    1eaa:	864e                	mv	a2,s3
    1eac:	854a                	mv	a0,s2
    1eae:	3f45                	jal	1e5e <__sfputc_r>
    1eb0:	0405                	addi	s0,s0,1
    1eb2:	ff4517e3          	bne	a0,s4,1ea0 <__sfputs_r+0x1a>
    1eb6:	40f2                	lw	ra,28(sp)
    1eb8:	4462                	lw	s0,24(sp)
    1eba:	44d2                	lw	s1,20(sp)
    1ebc:	4942                	lw	s2,16(sp)
    1ebe:	49b2                	lw	s3,12(sp)
    1ec0:	4a22                	lw	s4,8(sp)
    1ec2:	6105                	addi	sp,sp,32
    1ec4:	8082                	ret

00001ec6 <_vfiprintf_r>:
    1ec6:	7135                	addi	sp,sp,-160
    1ec8:	cd22                	sw	s0,152(sp)
    1eca:	cb26                	sw	s1,148(sp)
    1ecc:	c94a                	sw	s2,144(sp)
    1ece:	c74e                	sw	s3,140(sp)
    1ed0:	cf06                	sw	ra,156(sp)
    1ed2:	c552                	sw	s4,136(sp)
    1ed4:	c356                	sw	s5,132(sp)
    1ed6:	c15a                	sw	s6,128(sp)
    1ed8:	dede                	sw	s7,124(sp)
    1eda:	dce2                	sw	s8,120(sp)
    1edc:	dae6                	sw	s9,116(sp)
    1ede:	89aa                	mv	s3,a0
    1ee0:	84ae                	mv	s1,a1
    1ee2:	8932                	mv	s2,a2
    1ee4:	8436                	mv	s0,a3
    1ee6:	c501                	beqz	a0,1eee <_vfiprintf_r+0x28>
    1ee8:	4d1c                	lw	a5,24(a0)
    1eea:	e391                	bnez	a5,1eee <_vfiprintf_r+0x28>
    1eec:	3e79                	jal	1a8a <__sinit>
    1eee:	00001797          	auipc	a5,0x1
    1ef2:	c1e78793          	addi	a5,a5,-994 # 2b0c <__sf_fake_stdin>
    1ef6:	0cf49863          	bne	s1,a5,1fc6 <_vfiprintf_r+0x100>
    1efa:	0049a483          	lw	s1,4(s3)
    1efe:	24de                	fld	fs1,464(sp)
    1f00:	8ba1                	andi	a5,a5,8
    1f02:	c7e5                	beqz	a5,1fea <_vfiprintf_r+0x124>
    1f04:	489c                	lw	a5,16(s1)
    1f06:	c3f5                	beqz	a5,1fea <_vfiprintf_r+0x124>
    1f08:	02000793          	li	a5,32
    1f0c:	02f104a3          	sb	a5,41(sp)
    1f10:	03000793          	li	a5,48
    1f14:	d202                	sw	zero,36(sp)
    1f16:	02f10523          	sb	a5,42(sp)
    1f1a:	c622                	sw	s0,12(sp)
    1f1c:	02500b93          	li	s7,37
    1f20:	00001a97          	auipc	s5,0x1
    1f24:	c2ca8a93          	addi	s5,s5,-980 # 2b4c <__sf_fake_stdout+0x20>
    1f28:	4c05                	li	s8,1
    1f2a:	4b29                	li	s6,10
    1f2c:	844a                	mv	s0,s2
    1f2e:	201c                	fld	fa5,0(s0)
    1f30:	c399                	beqz	a5,1f36 <_vfiprintf_r+0x70>
    1f32:	0d779f63          	bne	a5,s7,2010 <_vfiprintf_r+0x14a>
    1f36:	41240cb3          	sub	s9,s0,s2
    1f3a:	000c8d63          	beqz	s9,1f54 <_vfiprintf_r+0x8e>
    1f3e:	86e6                	mv	a3,s9
    1f40:	864a                	mv	a2,s2
    1f42:	85a6                	mv	a1,s1
    1f44:	854e                	mv	a0,s3
    1f46:	3781                	jal	1e86 <__sfputs_r>
    1f48:	57fd                	li	a5,-1
    1f4a:	1ef50063          	beq	a0,a5,212a <_vfiprintf_r+0x264>
    1f4e:	5692                	lw	a3,36(sp)
    1f50:	96e6                	add	a3,a3,s9
    1f52:	d236                	sw	a3,36(sp)
    1f54:	201c                	fld	fa5,0(s0)
    1f56:	1c078a63          	beqz	a5,212a <_vfiprintf_r+0x264>
    1f5a:	57fd                	li	a5,-1
    1f5c:	00140913          	addi	s2,s0,1
    1f60:	c802                	sw	zero,16(sp)
    1f62:	ce02                	sw	zero,28(sp)
    1f64:	ca3e                	sw	a5,20(sp)
    1f66:	cc02                	sw	zero,24(sp)
    1f68:	040109a3          	sb	zero,83(sp)
    1f6c:	d482                	sw	zero,104(sp)
    1f6e:	00094583          	lbu	a1,0(s2)
    1f72:	4615                	li	a2,5
    1f74:	8556                	mv	a0,s5
    1f76:	7ae000ef          	jal	ra,2724 <memchr>
    1f7a:	00190413          	addi	s0,s2,1
    1f7e:	47c2                	lw	a5,16(sp)
    1f80:	e951                	bnez	a0,2014 <_vfiprintf_r+0x14e>
    1f82:	0107f713          	andi	a4,a5,16
    1f86:	c709                	beqz	a4,1f90 <_vfiprintf_r+0xca>
    1f88:	02000713          	li	a4,32
    1f8c:	04e109a3          	sb	a4,83(sp)
    1f90:	0087f713          	andi	a4,a5,8
    1f94:	c709                	beqz	a4,1f9e <_vfiprintf_r+0xd8>
    1f96:	02b00713          	li	a4,43
    1f9a:	04e109a3          	sb	a4,83(sp)
    1f9e:	00094683          	lbu	a3,0(s2)
    1fa2:	02a00713          	li	a4,42
    1fa6:	06e68f63          	beq	a3,a4,2024 <_vfiprintf_r+0x15e>
    1faa:	47f2                	lw	a5,28(sp)
    1fac:	844a                	mv	s0,s2
    1fae:	4681                	li	a3,0
    1fb0:	4625                	li	a2,9
    1fb2:	2018                	fld	fa4,0(s0)
    1fb4:	00140593          	addi	a1,s0,1
    1fb8:	fd070713          	addi	a4,a4,-48 # ffffdfd0 <_eusrstack+0xdffddfd0>
    1fbc:	0ae67763          	bgeu	a2,a4,206a <_vfiprintf_r+0x1a4>
    1fc0:	cab5                	beqz	a3,2034 <_vfiprintf_r+0x16e>
    1fc2:	ce3e                	sw	a5,28(sp)
    1fc4:	a885                	j	2034 <_vfiprintf_r+0x16e>
    1fc6:	00001797          	auipc	a5,0x1
    1fca:	b6678793          	addi	a5,a5,-1178 # 2b2c <__sf_fake_stdout>
    1fce:	00f49563          	bne	s1,a5,1fd8 <_vfiprintf_r+0x112>
    1fd2:	0089a483          	lw	s1,8(s3)
    1fd6:	b725                	j	1efe <_vfiprintf_r+0x38>
    1fd8:	00001797          	auipc	a5,0x1
    1fdc:	b1478793          	addi	a5,a5,-1260 # 2aec <__sf_fake_stderr>
    1fe0:	f0f49fe3          	bne	s1,a5,1efe <_vfiprintf_r+0x38>
    1fe4:	00c9a483          	lw	s1,12(s3)
    1fe8:	bf19                	j	1efe <_vfiprintf_r+0x38>
    1fea:	85a6                	mv	a1,s1
    1fec:	854e                	mv	a0,s3
    1fee:	f56ff0ef          	jal	ra,1744 <__swsetup_r>
    1ff2:	d919                	beqz	a0,1f08 <_vfiprintf_r+0x42>
    1ff4:	557d                	li	a0,-1
    1ff6:	40fa                	lw	ra,156(sp)
    1ff8:	446a                	lw	s0,152(sp)
    1ffa:	44da                	lw	s1,148(sp)
    1ffc:	494a                	lw	s2,144(sp)
    1ffe:	49ba                	lw	s3,140(sp)
    2000:	4a2a                	lw	s4,136(sp)
    2002:	4a9a                	lw	s5,132(sp)
    2004:	4b0a                	lw	s6,128(sp)
    2006:	5bf6                	lw	s7,124(sp)
    2008:	5c66                	lw	s8,120(sp)
    200a:	5cd6                	lw	s9,116(sp)
    200c:	610d                	addi	sp,sp,160
    200e:	8082                	ret
    2010:	0405                	addi	s0,s0,1
    2012:	bf31                	j	1f2e <_vfiprintf_r+0x68>
    2014:	41550533          	sub	a0,a0,s5
    2018:	00ac1533          	sll	a0,s8,a0
    201c:	8fc9                	or	a5,a5,a0
    201e:	c83e                	sw	a5,16(sp)
    2020:	8922                	mv	s2,s0
    2022:	b7b1                	j	1f6e <_vfiprintf_r+0xa8>
    2024:	4732                	lw	a4,12(sp)
    2026:	00470693          	addi	a3,a4,4
    202a:	4318                	lw	a4,0(a4)
    202c:	c636                	sw	a3,12(sp)
    202e:	02074763          	bltz	a4,205c <_vfiprintf_r+0x196>
    2032:	ce3a                	sw	a4,28(sp)
    2034:	2018                	fld	fa4,0(s0)
    2036:	02e00793          	li	a5,46
    203a:	04f71d63          	bne	a4,a5,2094 <_vfiprintf_r+0x1ce>
    203e:	3018                	fld	fa4,32(s0)
    2040:	02a00793          	li	a5,42
    2044:	02f71b63          	bne	a4,a5,207a <_vfiprintf_r+0x1b4>
    2048:	47b2                	lw	a5,12(sp)
    204a:	0409                	addi	s0,s0,2
    204c:	00478713          	addi	a4,a5,4
    2050:	439c                	lw	a5,0(a5)
    2052:	c63a                	sw	a4,12(sp)
    2054:	0207c163          	bltz	a5,2076 <_vfiprintf_r+0x1b0>
    2058:	ca3e                	sw	a5,20(sp)
    205a:	a82d                	j	2094 <_vfiprintf_r+0x1ce>
    205c:	40e00733          	neg	a4,a4
    2060:	0027e793          	ori	a5,a5,2
    2064:	ce3a                	sw	a4,28(sp)
    2066:	c83e                	sw	a5,16(sp)
    2068:	b7f1                	j	2034 <_vfiprintf_r+0x16e>
    206a:	036787b3          	mul	a5,a5,s6
    206e:	4685                	li	a3,1
    2070:	842e                	mv	s0,a1
    2072:	97ba                	add	a5,a5,a4
    2074:	bf3d                	j	1fb2 <_vfiprintf_r+0xec>
    2076:	57fd                	li	a5,-1
    2078:	b7c5                	j	2058 <_vfiprintf_r+0x192>
    207a:	0405                	addi	s0,s0,1
    207c:	ca02                	sw	zero,20(sp)
    207e:	4681                	li	a3,0
    2080:	4781                	li	a5,0
    2082:	4625                	li	a2,9
    2084:	2018                	fld	fa4,0(s0)
    2086:	00140593          	addi	a1,s0,1
    208a:	fd070713          	addi	a4,a4,-48
    208e:	06e67463          	bgeu	a2,a4,20f6 <_vfiprintf_r+0x230>
    2092:	f2f9                	bnez	a3,2058 <_vfiprintf_r+0x192>
    2094:	200c                	fld	fa1,0(s0)
    2096:	460d                	li	a2,3
    2098:	00001517          	auipc	a0,0x1
    209c:	abc50513          	addi	a0,a0,-1348 # 2b54 <__sf_fake_stdout+0x28>
    20a0:	2551                	jal	2724 <memchr>
    20a2:	cd11                	beqz	a0,20be <_vfiprintf_r+0x1f8>
    20a4:	00001797          	auipc	a5,0x1
    20a8:	ab078793          	addi	a5,a5,-1360 # 2b54 <__sf_fake_stdout+0x28>
    20ac:	8d1d                	sub	a0,a0,a5
    20ae:	04000793          	li	a5,64
    20b2:	00a797b3          	sll	a5,a5,a0
    20b6:	4542                	lw	a0,16(sp)
    20b8:	0405                	addi	s0,s0,1
    20ba:	8d5d                	or	a0,a0,a5
    20bc:	c82a                	sw	a0,16(sp)
    20be:	200c                	fld	fa1,0(s0)
    20c0:	4619                	li	a2,6
    20c2:	00001517          	auipc	a0,0x1
    20c6:	a9650513          	addi	a0,a0,-1386 # 2b58 <__sf_fake_stdout+0x2c>
    20ca:	00140913          	addi	s2,s0,1
    20ce:	02b10423          	sb	a1,40(sp)
    20d2:	2d89                	jal	2724 <memchr>
    20d4:	c135                	beqz	a0,2138 <_vfiprintf_r+0x272>
    20d6:	ffffe797          	auipc	a5,0xffffe
    20da:	f2a78793          	addi	a5,a5,-214 # 0 <_sinit>
    20de:	e795                	bnez	a5,210a <_vfiprintf_r+0x244>
    20e0:	4742                	lw	a4,16(sp)
    20e2:	47b2                	lw	a5,12(sp)
    20e4:	10077713          	andi	a4,a4,256
    20e8:	cf09                	beqz	a4,2102 <_vfiprintf_r+0x23c>
    20ea:	0791                	addi	a5,a5,4
    20ec:	c63e                	sw	a5,12(sp)
    20ee:	5792                	lw	a5,36(sp)
    20f0:	97d2                	add	a5,a5,s4
    20f2:	d23e                	sw	a5,36(sp)
    20f4:	bd25                	j	1f2c <_vfiprintf_r+0x66>
    20f6:	036787b3          	mul	a5,a5,s6
    20fa:	4685                	li	a3,1
    20fc:	842e                	mv	s0,a1
    20fe:	97ba                	add	a5,a5,a4
    2100:	b751                	j	2084 <_vfiprintf_r+0x1be>
    2102:	079d                	addi	a5,a5,7
    2104:	9be1                	andi	a5,a5,-8
    2106:	07a1                	addi	a5,a5,8
    2108:	b7d5                	j	20ec <_vfiprintf_r+0x226>
    210a:	0078                	addi	a4,sp,12
    210c:	00000697          	auipc	a3,0x0
    2110:	d7a68693          	addi	a3,a3,-646 # 1e86 <__sfputs_r>
    2114:	8626                	mv	a2,s1
    2116:	080c                	addi	a1,sp,16
    2118:	854e                	mv	a0,s3
    211a:	00000097          	auipc	ra,0x0
    211e:	000000e7          	jalr	zero # 0 <_sinit>
    2122:	57fd                	li	a5,-1
    2124:	8a2a                	mv	s4,a0
    2126:	fcf514e3          	bne	a0,a5,20ee <_vfiprintf_r+0x228>
    212a:	24de                	fld	fs1,464(sp)
    212c:	0407f793          	andi	a5,a5,64
    2130:	ec0792e3          	bnez	a5,1ff4 <_vfiprintf_r+0x12e>
    2134:	5512                	lw	a0,36(sp)
    2136:	b5c1                	j	1ff6 <_vfiprintf_r+0x130>
    2138:	0078                	addi	a4,sp,12
    213a:	00000697          	auipc	a3,0x0
    213e:	d4c68693          	addi	a3,a3,-692 # 1e86 <__sfputs_r>
    2142:	8626                	mv	a2,s1
    2144:	080c                	addi	a1,sp,16
    2146:	854e                	mv	a0,s3
    2148:	2a01                	jal	2258 <_printf_i>
    214a:	bfe1                	j	2122 <_vfiprintf_r+0x25c>

0000214c <_printf_common>:
    214c:	7179                	addi	sp,sp,-48
    214e:	ca56                	sw	s5,20(sp)
    2150:	499c                	lw	a5,16(a1)
    2152:	8aba                	mv	s5,a4
    2154:	4598                	lw	a4,8(a1)
    2156:	d422                	sw	s0,40(sp)
    2158:	d226                	sw	s1,36(sp)
    215a:	ce4e                	sw	s3,28(sp)
    215c:	cc52                	sw	s4,24(sp)
    215e:	d606                	sw	ra,44(sp)
    2160:	d04a                	sw	s2,32(sp)
    2162:	c85a                	sw	s6,16(sp)
    2164:	c65e                	sw	s7,12(sp)
    2166:	89aa                	mv	s3,a0
    2168:	842e                	mv	s0,a1
    216a:	84b2                	mv	s1,a2
    216c:	8a36                	mv	s4,a3
    216e:	00e7d363          	bge	a5,a4,2174 <_printf_common+0x28>
    2172:	87ba                	mv	a5,a4
    2174:	c09c                	sw	a5,0(s1)
    2176:	04344703          	lbu	a4,67(s0)
    217a:	c319                	beqz	a4,2180 <_printf_common+0x34>
    217c:	0785                	addi	a5,a5,1
    217e:	c09c                	sw	a5,0(s1)
    2180:	401c                	lw	a5,0(s0)
    2182:	0207f793          	andi	a5,a5,32
    2186:	c781                	beqz	a5,218e <_printf_common+0x42>
    2188:	409c                	lw	a5,0(s1)
    218a:	0789                	addi	a5,a5,2
    218c:	c09c                	sw	a5,0(s1)
    218e:	00042903          	lw	s2,0(s0)
    2192:	00697913          	andi	s2,s2,6
    2196:	00091a63          	bnez	s2,21aa <_printf_common+0x5e>
    219a:	01940b13          	addi	s6,s0,25
    219e:	5bfd                	li	s7,-1
    21a0:	445c                	lw	a5,12(s0)
    21a2:	4098                	lw	a4,0(s1)
    21a4:	8f99                	sub	a5,a5,a4
    21a6:	04f94c63          	blt	s2,a5,21fe <_printf_common+0xb2>
    21aa:	401c                	lw	a5,0(s0)
    21ac:	04344683          	lbu	a3,67(s0)
    21b0:	0207f793          	andi	a5,a5,32
    21b4:	00d036b3          	snez	a3,a3
    21b8:	eba5                	bnez	a5,2228 <_printf_common+0xdc>
    21ba:	04340613          	addi	a2,s0,67
    21be:	85d2                	mv	a1,s4
    21c0:	854e                	mv	a0,s3
    21c2:	9a82                	jalr	s5
    21c4:	57fd                	li	a5,-1
    21c6:	04f50363          	beq	a0,a5,220c <_printf_common+0xc0>
    21ca:	401c                	lw	a5,0(s0)
    21cc:	4611                	li	a2,4
    21ce:	4098                	lw	a4,0(s1)
    21d0:	8b99                	andi	a5,a5,6
    21d2:	4454                	lw	a3,12(s0)
    21d4:	4481                	li	s1,0
    21d6:	00c79763          	bne	a5,a2,21e4 <_printf_common+0x98>
    21da:	40e684b3          	sub	s1,a3,a4
    21de:	0004d363          	bgez	s1,21e4 <_printf_common+0x98>
    21e2:	4481                	li	s1,0
    21e4:	441c                	lw	a5,8(s0)
    21e6:	4818                	lw	a4,16(s0)
    21e8:	00f75463          	bge	a4,a5,21f0 <_printf_common+0xa4>
    21ec:	8f99                	sub	a5,a5,a4
    21ee:	94be                	add	s1,s1,a5
    21f0:	4901                	li	s2,0
    21f2:	0469                	addi	s0,s0,26
    21f4:	5b7d                	li	s6,-1
    21f6:	05249863          	bne	s1,s2,2246 <_printf_common+0xfa>
    21fa:	4501                	li	a0,0
    21fc:	a809                	j	220e <_printf_common+0xc2>
    21fe:	4685                	li	a3,1
    2200:	865a                	mv	a2,s6
    2202:	85d2                	mv	a1,s4
    2204:	854e                	mv	a0,s3
    2206:	9a82                	jalr	s5
    2208:	01751e63          	bne	a0,s7,2224 <_printf_common+0xd8>
    220c:	557d                	li	a0,-1
    220e:	50b2                	lw	ra,44(sp)
    2210:	5422                	lw	s0,40(sp)
    2212:	5492                	lw	s1,36(sp)
    2214:	5902                	lw	s2,32(sp)
    2216:	49f2                	lw	s3,28(sp)
    2218:	4a62                	lw	s4,24(sp)
    221a:	4ad2                	lw	s5,20(sp)
    221c:	4b42                	lw	s6,16(sp)
    221e:	4bb2                	lw	s7,12(sp)
    2220:	6145                	addi	sp,sp,48
    2222:	8082                	ret
    2224:	0905                	addi	s2,s2,1
    2226:	bfad                	j	21a0 <_printf_common+0x54>
    2228:	00d40733          	add	a4,s0,a3
    222c:	03000613          	li	a2,48
    2230:	04c701a3          	sb	a2,67(a4)
    2234:	04544703          	lbu	a4,69(s0)
    2238:	00168793          	addi	a5,a3,1
    223c:	97a2                	add	a5,a5,s0
    223e:	0689                	addi	a3,a3,2
    2240:	04e781a3          	sb	a4,67(a5)
    2244:	bf9d                	j	21ba <_printf_common+0x6e>
    2246:	4685                	li	a3,1
    2248:	8622                	mv	a2,s0
    224a:	85d2                	mv	a1,s4
    224c:	854e                	mv	a0,s3
    224e:	9a82                	jalr	s5
    2250:	fb650ee3          	beq	a0,s6,220c <_printf_common+0xc0>
    2254:	0905                	addi	s2,s2,1
    2256:	b745                	j	21f6 <_printf_common+0xaa>

00002258 <_printf_i>:
    2258:	7179                	addi	sp,sp,-48
    225a:	d422                	sw	s0,40(sp)
    225c:	d226                	sw	s1,36(sp)
    225e:	d04a                	sw	s2,32(sp)
    2260:	ce4e                	sw	s3,28(sp)
    2262:	d606                	sw	ra,44(sp)
    2264:	cc52                	sw	s4,24(sp)
    2266:	ca56                	sw	s5,20(sp)
    2268:	c85a                	sw	s6,16(sp)
    226a:	89b6                	mv	s3,a3
    226c:	2d94                	fld	fa3,24(a1)
    226e:	06900793          	li	a5,105
    2272:	8932                	mv	s2,a2
    2274:	84aa                	mv	s1,a0
    2276:	842e                	mv	s0,a1
    2278:	04358613          	addi	a2,a1,67
    227c:	02f68d63          	beq	a3,a5,22b6 <_printf_i+0x5e>
    2280:	06d7e263          	bltu	a5,a3,22e4 <_printf_i+0x8c>
    2284:	05800793          	li	a5,88
    2288:	18f68563          	beq	a3,a5,2412 <_printf_i+0x1ba>
    228c:	00d7ed63          	bltu	a5,a3,22a6 <_printf_i+0x4e>
    2290:	20068d63          	beqz	a3,24aa <_printf_i+0x252>
    2294:	04300793          	li	a5,67
    2298:	0af68e63          	beq	a3,a5,2354 <_printf_i+0xfc>
    229c:	04240a93          	addi	s5,s0,66
    22a0:	04d40123          	sb	a3,66(s0)
    22a4:	a0c9                	j	2366 <_printf_i+0x10e>
    22a6:	06300793          	li	a5,99
    22aa:	0af68563          	beq	a3,a5,2354 <_printf_i+0xfc>
    22ae:	06400793          	li	a5,100
    22b2:	fef695e3          	bne	a3,a5,229c <_printf_i+0x44>
    22b6:	401c                	lw	a5,0(s0)
    22b8:	4308                	lw	a0,0(a4)
    22ba:	0807f693          	andi	a3,a5,128
    22be:	00450593          	addi	a1,a0,4
    22c2:	c6c5                	beqz	a3,236a <_printf_i+0x112>
    22c4:	411c                	lw	a5,0(a0)
    22c6:	c30c                	sw	a1,0(a4)
    22c8:	0007d863          	bgez	a5,22d8 <_printf_i+0x80>
    22cc:	02d00713          	li	a4,45
    22d0:	40f007b3          	neg	a5,a5
    22d4:	04e401a3          	sb	a4,67(s0)
    22d8:	00001697          	auipc	a3,0x1
    22dc:	88868693          	addi	a3,a3,-1912 # 2b60 <__sf_fake_stdout+0x34>
    22e0:	4729                	li	a4,10
    22e2:	a865                	j	239a <_printf_i+0x142>
    22e4:	07000793          	li	a5,112
    22e8:	16f68163          	beq	a3,a5,244a <_printf_i+0x1f2>
    22ec:	02d7e563          	bltu	a5,a3,2316 <_printf_i+0xbe>
    22f0:	06e00793          	li	a5,110
    22f4:	18f68863          	beq	a3,a5,2484 <_printf_i+0x22c>
    22f8:	06f00793          	li	a5,111
    22fc:	faf690e3          	bne	a3,a5,229c <_printf_i+0x44>
    2300:	400c                	lw	a1,0(s0)
    2302:	431c                	lw	a5,0(a4)
    2304:	0805f813          	andi	a6,a1,128
    2308:	00478513          	addi	a0,a5,4
    230c:	06080763          	beqz	a6,237a <_printf_i+0x122>
    2310:	c308                	sw	a0,0(a4)
    2312:	439c                	lw	a5,0(a5)
    2314:	a885                	j	2384 <_printf_i+0x12c>
    2316:	07500793          	li	a5,117
    231a:	fef683e3          	beq	a3,a5,2300 <_printf_i+0xa8>
    231e:	07800793          	li	a5,120
    2322:	12f68863          	beq	a3,a5,2452 <_printf_i+0x1fa>
    2326:	07300793          	li	a5,115
    232a:	f6f699e3          	bne	a3,a5,229c <_printf_i+0x44>
    232e:	431c                	lw	a5,0(a4)
    2330:	41d0                	lw	a2,4(a1)
    2332:	4581                	li	a1,0
    2334:	00478693          	addi	a3,a5,4
    2338:	c314                	sw	a3,0(a4)
    233a:	0007aa83          	lw	s5,0(a5)
    233e:	8556                	mv	a0,s5
    2340:	26d5                	jal	2724 <memchr>
    2342:	c501                	beqz	a0,234a <_printf_i+0xf2>
    2344:	41550533          	sub	a0,a0,s5
    2348:	c048                	sw	a0,4(s0)
    234a:	405c                	lw	a5,4(s0)
    234c:	c81c                	sw	a5,16(s0)
    234e:	040401a3          	sb	zero,67(s0)
    2352:	a861                	j	23ea <_printf_i+0x192>
    2354:	431c                	lw	a5,0(a4)
    2356:	04240a93          	addi	s5,s0,66
    235a:	00478693          	addi	a3,a5,4
    235e:	439c                	lw	a5,0(a5)
    2360:	c314                	sw	a3,0(a4)
    2362:	04f40123          	sb	a5,66(s0)
    2366:	4785                	li	a5,1
    2368:	b7d5                	j	234c <_printf_i+0xf4>
    236a:	0407f693          	andi	a3,a5,64
    236e:	411c                	lw	a5,0(a0)
    2370:	c30c                	sw	a1,0(a4)
    2372:	dab9                	beqz	a3,22c8 <_printf_i+0x70>
    2374:	07c2                	slli	a5,a5,0x10
    2376:	87c1                	srai	a5,a5,0x10
    2378:	bf81                	j	22c8 <_printf_i+0x70>
    237a:	0405f593          	andi	a1,a1,64
    237e:	c308                	sw	a0,0(a4)
    2380:	d9c9                	beqz	a1,2312 <_printf_i+0xba>
    2382:	239e                	fld	ft7,448(sp)
    2384:	06f00713          	li	a4,111
    2388:	0ee68663          	beq	a3,a4,2474 <_printf_i+0x21c>
    238c:	00000697          	auipc	a3,0x0
    2390:	7d468693          	addi	a3,a3,2004 # 2b60 <__sf_fake_stdout+0x34>
    2394:	4729                	li	a4,10
    2396:	040401a3          	sb	zero,67(s0)
    239a:	404c                	lw	a1,4(s0)
    239c:	c40c                	sw	a1,8(s0)
    239e:	0005c563          	bltz	a1,23a8 <_printf_i+0x150>
    23a2:	4008                	lw	a0,0(s0)
    23a4:	996d                	andi	a0,a0,-5
    23a6:	c008                	sw	a0,0(s0)
    23a8:	e399                	bnez	a5,23ae <_printf_i+0x156>
    23aa:	8ab2                	mv	s5,a2
    23ac:	cd89                	beqz	a1,23c6 <_printf_i+0x16e>
    23ae:	8ab2                	mv	s5,a2
    23b0:	02e7f5b3          	remu	a1,a5,a4
    23b4:	1afd                	addi	s5,s5,-1
    23b6:	95b6                	add	a1,a1,a3
    23b8:	218c                	fld	fa1,0(a1)
    23ba:	00ba8023          	sb	a1,0(s5)
    23be:	02e7d5b3          	divu	a1,a5,a4
    23c2:	0ae7ff63          	bgeu	a5,a4,2480 <_printf_i+0x228>
    23c6:	47a1                	li	a5,8
    23c8:	00f71e63          	bne	a4,a5,23e4 <_printf_i+0x18c>
    23cc:	401c                	lw	a5,0(s0)
    23ce:	8b85                	andi	a5,a5,1
    23d0:	cb91                	beqz	a5,23e4 <_printf_i+0x18c>
    23d2:	4058                	lw	a4,4(s0)
    23d4:	481c                	lw	a5,16(s0)
    23d6:	00e7c763          	blt	a5,a4,23e4 <_printf_i+0x18c>
    23da:	03000793          	li	a5,48
    23de:	fefa8fa3          	sb	a5,-1(s5)
    23e2:	1afd                	addi	s5,s5,-1
    23e4:	41560633          	sub	a2,a2,s5
    23e8:	c810                	sw	a2,16(s0)
    23ea:	874e                	mv	a4,s3
    23ec:	86ca                	mv	a3,s2
    23ee:	0070                	addi	a2,sp,12
    23f0:	85a2                	mv	a1,s0
    23f2:	8526                	mv	a0,s1
    23f4:	3ba1                	jal	214c <_printf_common>
    23f6:	5a7d                	li	s4,-1
    23f8:	0b451d63          	bne	a0,s4,24b2 <_printf_i+0x25a>
    23fc:	557d                	li	a0,-1
    23fe:	50b2                	lw	ra,44(sp)
    2400:	5422                	lw	s0,40(sp)
    2402:	5492                	lw	s1,36(sp)
    2404:	5902                	lw	s2,32(sp)
    2406:	49f2                	lw	s3,28(sp)
    2408:	4a62                	lw	s4,24(sp)
    240a:	4ad2                	lw	s5,20(sp)
    240c:	4b42                	lw	s6,16(sp)
    240e:	6145                	addi	sp,sp,48
    2410:	8082                	ret
    2412:	04d582a3          	sb	a3,69(a1)
    2416:	00000697          	auipc	a3,0x0
    241a:	74a68693          	addi	a3,a3,1866 # 2b60 <__sf_fake_stdout+0x34>
    241e:	400c                	lw	a1,0(s0)
    2420:	4308                	lw	a0,0(a4)
    2422:	0805f813          	andi	a6,a1,128
    2426:	411c                	lw	a5,0(a0)
    2428:	0511                	addi	a0,a0,4
    242a:	02080d63          	beqz	a6,2464 <_printf_i+0x20c>
    242e:	c308                	sw	a0,0(a4)
    2430:	0015f713          	andi	a4,a1,1
    2434:	c701                	beqz	a4,243c <_printf_i+0x1e4>
    2436:	0205e593          	ori	a1,a1,32
    243a:	c00c                	sw	a1,0(s0)
    243c:	4741                	li	a4,16
    243e:	ffa1                	bnez	a5,2396 <_printf_i+0x13e>
    2440:	400c                	lw	a1,0(s0)
    2442:	fdf5f593          	andi	a1,a1,-33
    2446:	c00c                	sw	a1,0(s0)
    2448:	b7b9                	j	2396 <_printf_i+0x13e>
    244a:	419c                	lw	a5,0(a1)
    244c:	0207e793          	ori	a5,a5,32
    2450:	c19c                	sw	a5,0(a1)
    2452:	07800793          	li	a5,120
    2456:	04f402a3          	sb	a5,69(s0)
    245a:	00000697          	auipc	a3,0x0
    245e:	71a68693          	addi	a3,a3,1818 # 2b74 <__sf_fake_stdout+0x48>
    2462:	bf75                	j	241e <_printf_i+0x1c6>
    2464:	0405f813          	andi	a6,a1,64
    2468:	c308                	sw	a0,0(a4)
    246a:	fc0803e3          	beqz	a6,2430 <_printf_i+0x1d8>
    246e:	07c2                	slli	a5,a5,0x10
    2470:	83c1                	srli	a5,a5,0x10
    2472:	bf7d                	j	2430 <_printf_i+0x1d8>
    2474:	00000697          	auipc	a3,0x0
    2478:	6ec68693          	addi	a3,a3,1772 # 2b60 <__sf_fake_stdout+0x34>
    247c:	4721                	li	a4,8
    247e:	bf21                	j	2396 <_printf_i+0x13e>
    2480:	87ae                	mv	a5,a1
    2482:	b73d                	j	23b0 <_printf_i+0x158>
    2484:	4194                	lw	a3,0(a1)
    2486:	431c                	lw	a5,0(a4)
    2488:	49cc                	lw	a1,20(a1)
    248a:	0806f813          	andi	a6,a3,128
    248e:	00478513          	addi	a0,a5,4
    2492:	00080663          	beqz	a6,249e <_printf_i+0x246>
    2496:	c308                	sw	a0,0(a4)
    2498:	439c                	lw	a5,0(a5)
    249a:	c38c                	sw	a1,0(a5)
    249c:	a039                	j	24aa <_printf_i+0x252>
    249e:	c308                	sw	a0,0(a4)
    24a0:	0406f693          	andi	a3,a3,64
    24a4:	439c                	lw	a5,0(a5)
    24a6:	daf5                	beqz	a3,249a <_printf_i+0x242>
    24a8:	a38e                	fsd	ft3,448(sp)
    24aa:	00042823          	sw	zero,16(s0)
    24ae:	8ab2                	mv	s5,a2
    24b0:	bf2d                	j	23ea <_printf_i+0x192>
    24b2:	4814                	lw	a3,16(s0)
    24b4:	8656                	mv	a2,s5
    24b6:	85ca                	mv	a1,s2
    24b8:	8526                	mv	a0,s1
    24ba:	9982                	jalr	s3
    24bc:	f54500e3          	beq	a0,s4,23fc <_printf_i+0x1a4>
    24c0:	401c                	lw	a5,0(s0)
    24c2:	8b89                	andi	a5,a5,2
    24c4:	e78d                	bnez	a5,24ee <_printf_i+0x296>
    24c6:	47b2                	lw	a5,12(sp)
    24c8:	4448                	lw	a0,12(s0)
    24ca:	f2f55ae3          	bge	a0,a5,23fe <_printf_i+0x1a6>
    24ce:	853e                	mv	a0,a5
    24d0:	b73d                	j	23fe <_printf_i+0x1a6>
    24d2:	4685                	li	a3,1
    24d4:	8656                	mv	a2,s5
    24d6:	85ca                	mv	a1,s2
    24d8:	8526                	mv	a0,s1
    24da:	9982                	jalr	s3
    24dc:	f36500e3          	beq	a0,s6,23fc <_printf_i+0x1a4>
    24e0:	0a05                	addi	s4,s4,1
    24e2:	445c                	lw	a5,12(s0)
    24e4:	4732                	lw	a4,12(sp)
    24e6:	8f99                	sub	a5,a5,a4
    24e8:	fefa45e3          	blt	s4,a5,24d2 <_printf_i+0x27a>
    24ec:	bfe9                	j	24c6 <_printf_i+0x26e>
    24ee:	4a01                	li	s4,0
    24f0:	01940a93          	addi	s5,s0,25
    24f4:	5b7d                	li	s6,-1
    24f6:	b7f5                	j	24e2 <_printf_i+0x28a>

000024f8 <_putc_r>:
    24f8:	1101                	addi	sp,sp,-32
    24fa:	cc22                	sw	s0,24(sp)
    24fc:	ce06                	sw	ra,28(sp)
    24fe:	842a                	mv	s0,a0
    2500:	c909                	beqz	a0,2512 <_putc_r+0x1a>
    2502:	4d1c                	lw	a5,24(a0)
    2504:	e799                	bnez	a5,2512 <_putc_r+0x1a>
    2506:	c632                	sw	a2,12(sp)
    2508:	c42e                	sw	a1,8(sp)
    250a:	d80ff0ef          	jal	ra,1a8a <__sinit>
    250e:	4632                	lw	a2,12(sp)
    2510:	45a2                	lw	a1,8(sp)
    2512:	00000797          	auipc	a5,0x0
    2516:	5fa78793          	addi	a5,a5,1530 # 2b0c <__sf_fake_stdin>
    251a:	02f61663          	bne	a2,a5,2546 <_putc_r+0x4e>
    251e:	4050                	lw	a2,4(s0)
    2520:	461c                	lw	a5,8(a2)
    2522:	17fd                	addi	a5,a5,-1
    2524:	c61c                	sw	a5,8(a2)
    2526:	0407d063          	bgez	a5,2566 <_putc_r+0x6e>
    252a:	4e18                	lw	a4,24(a2)
    252c:	00e7c763          	blt	a5,a4,253a <_putc_r+0x42>
    2530:	0ff5f793          	andi	a5,a1,255
    2534:	4729                	li	a4,10
    2536:	02e79863          	bne	a5,a4,2566 <_putc_r+0x6e>
    253a:	8522                	mv	a0,s0
    253c:	4462                	lw	s0,24(sp)
    253e:	40f2                	lw	ra,28(sp)
    2540:	6105                	addi	sp,sp,32
    2542:	946ff06f          	j	1688 <__swbuf_r>
    2546:	00000797          	auipc	a5,0x0
    254a:	5e678793          	addi	a5,a5,1510 # 2b2c <__sf_fake_stdout>
    254e:	00f61463          	bne	a2,a5,2556 <_putc_r+0x5e>
    2552:	4410                	lw	a2,8(s0)
    2554:	b7f1                	j	2520 <_putc_r+0x28>
    2556:	00000797          	auipc	a5,0x0
    255a:	59678793          	addi	a5,a5,1430 # 2aec <__sf_fake_stderr>
    255e:	fcf611e3          	bne	a2,a5,2520 <_putc_r+0x28>
    2562:	4450                	lw	a2,12(s0)
    2564:	bf75                	j	2520 <_putc_r+0x28>
    2566:	421c                	lw	a5,0(a2)
    2568:	0ff5f513          	andi	a0,a1,255
    256c:	00178713          	addi	a4,a5,1
    2570:	c218                	sw	a4,0(a2)
    2572:	a38c                	fsd	fa1,0(a5)
    2574:	40f2                	lw	ra,28(sp)
    2576:	4462                	lw	s0,24(sp)
    2578:	6105                	addi	sp,sp,32
    257a:	8082                	ret

0000257c <_sbrk_r>:
    257c:	1141                	addi	sp,sp,-16
    257e:	c422                	sw	s0,8(sp)
    2580:	842a                	mv	s0,a0
    2582:	852e                	mv	a0,a1
    2584:	8201a823          	sw	zero,-2000(gp) # 200000b0 <errno>
    2588:	c606                	sw	ra,12(sp)
    258a:	de3fd0ef          	jal	ra,36c <_sbrk>
    258e:	57fd                	li	a5,-1
    2590:	00f51763          	bne	a0,a5,259e <_sbrk_r+0x22>
    2594:	83018793          	addi	a5,gp,-2000 # 200000b0 <errno>
    2598:	439c                	lw	a5,0(a5)
    259a:	c391                	beqz	a5,259e <_sbrk_r+0x22>
    259c:	c01c                	sw	a5,0(s0)
    259e:	40b2                	lw	ra,12(sp)
    25a0:	4422                	lw	s0,8(sp)
    25a2:	0141                	addi	sp,sp,16
    25a4:	8082                	ret

000025a6 <__sread>:
    25a6:	1141                	addi	sp,sp,-16
    25a8:	c422                	sw	s0,8(sp)
    25aa:	842e                	mv	s0,a1
    25ac:	00e59583          	lh	a1,14(a1)
    25b0:	c606                	sw	ra,12(sp)
    25b2:	2279                	jal	2740 <_read_r>
    25b4:	00054963          	bltz	a0,25c6 <__sread+0x20>
    25b8:	487c                	lw	a5,84(s0)
    25ba:	97aa                	add	a5,a5,a0
    25bc:	c87c                	sw	a5,84(s0)
    25be:	40b2                	lw	ra,12(sp)
    25c0:	4422                	lw	s0,8(sp)
    25c2:	0141                	addi	sp,sp,16
    25c4:	8082                	ret
    25c6:	245e                	fld	fs0,464(sp)
    25c8:	777d                	lui	a4,0xfffff
    25ca:	177d                	addi	a4,a4,-1
    25cc:	8ff9                	and	a5,a5,a4
    25ce:	a45e                	fsd	fs7,8(sp)
    25d0:	b7fd                	j	25be <__sread+0x18>

000025d2 <__swrite>:
    25d2:	25de                	fld	fa1,464(sp)
    25d4:	1101                	addi	sp,sp,-32
    25d6:	cc22                	sw	s0,24(sp)
    25d8:	ca26                	sw	s1,20(sp)
    25da:	c84a                	sw	s2,16(sp)
    25dc:	c64e                	sw	s3,12(sp)
    25de:	ce06                	sw	ra,28(sp)
    25e0:	1007f793          	andi	a5,a5,256
    25e4:	84aa                	mv	s1,a0
    25e6:	842e                	mv	s0,a1
    25e8:	8932                	mv	s2,a2
    25ea:	89b6                	mv	s3,a3
    25ec:	c791                	beqz	a5,25f8 <__swrite+0x26>
    25ee:	00e59583          	lh	a1,14(a1)
    25f2:	4689                	li	a3,2
    25f4:	4601                	li	a2,0
    25f6:	2209                	jal	26f8 <_lseek_r>
    25f8:	245e                	fld	fs0,464(sp)
    25fa:	777d                	lui	a4,0xfffff
    25fc:	177d                	addi	a4,a4,-1
    25fe:	8ff9                	and	a5,a5,a4
    2600:	a45e                	fsd	fs7,8(sp)
    2602:	00e41583          	lh	a1,14(s0)
    2606:	4462                	lw	s0,24(sp)
    2608:	40f2                	lw	ra,28(sp)
    260a:	86ce                	mv	a3,s3
    260c:	864a                	mv	a2,s2
    260e:	49b2                	lw	s3,12(sp)
    2610:	4942                	lw	s2,16(sp)
    2612:	8526                	mv	a0,s1
    2614:	44d2                	lw	s1,20(sp)
    2616:	6105                	addi	sp,sp,32
    2618:	a825                	j	2650 <_write_r>

0000261a <__sseek>:
    261a:	1141                	addi	sp,sp,-16
    261c:	c422                	sw	s0,8(sp)
    261e:	842e                	mv	s0,a1
    2620:	00e59583          	lh	a1,14(a1)
    2624:	c606                	sw	ra,12(sp)
    2626:	28c9                	jal	26f8 <_lseek_r>
    2628:	57fd                	li	a5,-1
    262a:	245a                	fld	fs0,400(sp)
    262c:	00f51a63          	bne	a0,a5,2640 <__sseek+0x26>
    2630:	77fd                	lui	a5,0xfffff
    2632:	17fd                	addi	a5,a5,-1
    2634:	8ff9                	and	a5,a5,a4
    2636:	a45e                	fsd	fs7,8(sp)
    2638:	40b2                	lw	ra,12(sp)
    263a:	4422                	lw	s0,8(sp)
    263c:	0141                	addi	sp,sp,16
    263e:	8082                	ret
    2640:	6785                	lui	a5,0x1
    2642:	8fd9                	or	a5,a5,a4
    2644:	a45e                	fsd	fs7,8(sp)
    2646:	c868                	sw	a0,84(s0)
    2648:	bfc5                	j	2638 <__sseek+0x1e>

0000264a <__sclose>:
    264a:	00e59583          	lh	a1,14(a1)
    264e:	a805                	j	267e <_close_r>

00002650 <_write_r>:
    2650:	1141                	addi	sp,sp,-16
    2652:	c422                	sw	s0,8(sp)
    2654:	842a                	mv	s0,a0
    2656:	852e                	mv	a0,a1
    2658:	85b2                	mv	a1,a2
    265a:	8636                	mv	a2,a3
    265c:	8201a823          	sw	zero,-2000(gp) # 200000b0 <errno>
    2660:	c606                	sw	ra,12(sp)
    2662:	c95fd0ef          	jal	ra,2f6 <_write>
    2666:	57fd                	li	a5,-1
    2668:	00f51763          	bne	a0,a5,2676 <_write_r+0x26>
    266c:	83018793          	addi	a5,gp,-2000 # 200000b0 <errno>
    2670:	439c                	lw	a5,0(a5)
    2672:	c391                	beqz	a5,2676 <_write_r+0x26>
    2674:	c01c                	sw	a5,0(s0)
    2676:	40b2                	lw	ra,12(sp)
    2678:	4422                	lw	s0,8(sp)
    267a:	0141                	addi	sp,sp,16
    267c:	8082                	ret

0000267e <_close_r>:
    267e:	1141                	addi	sp,sp,-16
    2680:	c422                	sw	s0,8(sp)
    2682:	842a                	mv	s0,a0
    2684:	852e                	mv	a0,a1
    2686:	8201a823          	sw	zero,-2000(gp) # 200000b0 <errno>
    268a:	c606                	sw	ra,12(sp)
    268c:	20c5                	jal	276c <_close>
    268e:	57fd                	li	a5,-1
    2690:	00f51763          	bne	a0,a5,269e <_close_r+0x20>
    2694:	83018793          	addi	a5,gp,-2000 # 200000b0 <errno>
    2698:	439c                	lw	a5,0(a5)
    269a:	c391                	beqz	a5,269e <_close_r+0x20>
    269c:	c01c                	sw	a5,0(s0)
    269e:	40b2                	lw	ra,12(sp)
    26a0:	4422                	lw	s0,8(sp)
    26a2:	0141                	addi	sp,sp,16
    26a4:	8082                	ret

000026a6 <_fstat_r>:
    26a6:	1141                	addi	sp,sp,-16
    26a8:	c422                	sw	s0,8(sp)
    26aa:	842a                	mv	s0,a0
    26ac:	852e                	mv	a0,a1
    26ae:	85b2                	mv	a1,a2
    26b0:	8201a823          	sw	zero,-2000(gp) # 200000b0 <errno>
    26b4:	c606                	sw	ra,12(sp)
    26b6:	20c9                	jal	2778 <_fstat>
    26b8:	57fd                	li	a5,-1
    26ba:	00f51763          	bne	a0,a5,26c8 <_fstat_r+0x22>
    26be:	83018793          	addi	a5,gp,-2000 # 200000b0 <errno>
    26c2:	439c                	lw	a5,0(a5)
    26c4:	c391                	beqz	a5,26c8 <_fstat_r+0x22>
    26c6:	c01c                	sw	a5,0(s0)
    26c8:	40b2                	lw	ra,12(sp)
    26ca:	4422                	lw	s0,8(sp)
    26cc:	0141                	addi	sp,sp,16
    26ce:	8082                	ret

000026d0 <_isatty_r>:
    26d0:	1141                	addi	sp,sp,-16
    26d2:	c422                	sw	s0,8(sp)
    26d4:	842a                	mv	s0,a0
    26d6:	852e                	mv	a0,a1
    26d8:	8201a823          	sw	zero,-2000(gp) # 200000b0 <errno>
    26dc:	c606                	sw	ra,12(sp)
    26de:	205d                	jal	2784 <_isatty>
    26e0:	57fd                	li	a5,-1
    26e2:	00f51763          	bne	a0,a5,26f0 <_isatty_r+0x20>
    26e6:	83018793          	addi	a5,gp,-2000 # 200000b0 <errno>
    26ea:	439c                	lw	a5,0(a5)
    26ec:	c391                	beqz	a5,26f0 <_isatty_r+0x20>
    26ee:	c01c                	sw	a5,0(s0)
    26f0:	40b2                	lw	ra,12(sp)
    26f2:	4422                	lw	s0,8(sp)
    26f4:	0141                	addi	sp,sp,16
    26f6:	8082                	ret

000026f8 <_lseek_r>:
    26f8:	1141                	addi	sp,sp,-16
    26fa:	c422                	sw	s0,8(sp)
    26fc:	842a                	mv	s0,a0
    26fe:	852e                	mv	a0,a1
    2700:	85b2                	mv	a1,a2
    2702:	8636                	mv	a2,a3
    2704:	8201a823          	sw	zero,-2000(gp) # 200000b0 <errno>
    2708:	c606                	sw	ra,12(sp)
    270a:	2059                	jal	2790 <_lseek>
    270c:	57fd                	li	a5,-1
    270e:	00f51763          	bne	a0,a5,271c <_lseek_r+0x24>
    2712:	83018793          	addi	a5,gp,-2000 # 200000b0 <errno>
    2716:	439c                	lw	a5,0(a5)
    2718:	c391                	beqz	a5,271c <_lseek_r+0x24>
    271a:	c01c                	sw	a5,0(s0)
    271c:	40b2                	lw	ra,12(sp)
    271e:	4422                	lw	s0,8(sp)
    2720:	0141                	addi	sp,sp,16
    2722:	8082                	ret

00002724 <memchr>:
    2724:	0ff5f593          	andi	a1,a1,255
    2728:	962a                	add	a2,a2,a0
    272a:	00c51463          	bne	a0,a2,2732 <memchr+0xe>
    272e:	4501                	li	a0,0
    2730:	8082                	ret
    2732:	211c                	fld	fa5,0(a0)
    2734:	feb78ee3          	beq	a5,a1,2730 <memchr+0xc>
    2738:	0505                	addi	a0,a0,1
    273a:	bfc5                	j	272a <memchr+0x6>

0000273c <__malloc_lock>:
    273c:	8082                	ret

0000273e <__malloc_unlock>:
    273e:	8082                	ret

00002740 <_read_r>:
    2740:	1141                	addi	sp,sp,-16
    2742:	c422                	sw	s0,8(sp)
    2744:	842a                	mv	s0,a0
    2746:	852e                	mv	a0,a1
    2748:	85b2                	mv	a1,a2
    274a:	8636                	mv	a2,a3
    274c:	8201a823          	sw	zero,-2000(gp) # 200000b0 <errno>
    2750:	c606                	sw	ra,12(sp)
    2752:	20a9                	jal	279c <_read>
    2754:	57fd                	li	a5,-1
    2756:	00f51763          	bne	a0,a5,2764 <_read_r+0x24>
    275a:	83018793          	addi	a5,gp,-2000 # 200000b0 <errno>
    275e:	439c                	lw	a5,0(a5)
    2760:	c391                	beqz	a5,2764 <_read_r+0x24>
    2762:	c01c                	sw	a5,0(s0)
    2764:	40b2                	lw	ra,12(sp)
    2766:	4422                	lw	s0,8(sp)
    2768:	0141                	addi	sp,sp,16
    276a:	8082                	ret

0000276c <_close>:
    276c:	05800793          	li	a5,88
    2770:	82f1a823          	sw	a5,-2000(gp) # 200000b0 <errno>
    2774:	557d                	li	a0,-1
    2776:	8082                	ret

00002778 <_fstat>:
    2778:	05800793          	li	a5,88
    277c:	82f1a823          	sw	a5,-2000(gp) # 200000b0 <errno>
    2780:	557d                	li	a0,-1
    2782:	8082                	ret

00002784 <_isatty>:
    2784:	05800793          	li	a5,88
    2788:	82f1a823          	sw	a5,-2000(gp) # 200000b0 <errno>
    278c:	4501                	li	a0,0
    278e:	8082                	ret

00002790 <_lseek>:
    2790:	05800793          	li	a5,88
    2794:	82f1a823          	sw	a5,-2000(gp) # 200000b0 <errno>
    2798:	557d                	li	a0,-1
    279a:	8082                	ret

0000279c <_read>:
    279c:	05800793          	li	a5,88
    27a0:	82f1a823          	sw	a5,-2000(gp) # 200000b0 <errno>
    27a4:	557d                	li	a0,-1
    27a6:	8082                	ret
    27a8:	66667573          	csrrci	a0,0x666,12
    27ac:	7265                	lui	tp,0xffff9
    27ae:	6465                	lui	s0,0x19
    27b0:	4e20                	lw	s0,88(a2)
    27b2:	494d                	li	s2,19
    27b4:	002e                	c.slli	zero,0xb
    27b6:	0000                	unimp
    27b8:	656d                	lui	a0,0x1b
    27ba:	6370                	flw	fa2,68(a4)
    27bc:	253d                	jal	2dea <_data_lma+0x262>
    27be:	3830                	fld	fa2,112(s0)
    27c0:	0d78                	addi	a4,sp,668
    27c2:	000a                	c.slli	zero,0x2
    27c4:	636d                	lui	t1,0x1b
    27c6:	7561                	lui	a0,0xffff8
    27c8:	253d6573          	csrrsi	a0,0x253,26
    27cc:	3830                	fld	fa2,112(s0)
    27ce:	0d78                	addi	a4,sp,668
    27d0:	000a                	c.slli	zero,0x2
    27d2:	0000                	unimp
    27d4:	746d                	lui	s0,0xffffb
    27d6:	6176                	flw	ft2,92(sp)
    27d8:	3d6c                	fld	fa1,248(a0)
    27da:	3025                	jal	2002 <_vfiprintf_r+0x13c>
    27dc:	7838                	flw	fa4,112(s0)
    27de:	0a0d                	addi	s4,s4,3
    27e0:	0000                	unimp
    27e2:	0000                	unimp
    27e4:	7245                	lui	tp,0xffff1
    27e6:	6f72                	flw	ft10,28(sp)
    27e8:	3a72                	fld	fs4,312(sp)
    27ea:	2041                	jal	286a <_read+0xce>
    27ec:	6168                	flw	fa0,68(a0)
    27ee:	6472                	flw	fs0,28(sp)
    27f0:	6146                	flw	ft2,80(sp)
    27f2:	6c75                	lui	s8,0x1d
    27f4:	2074                	fld	fa3,192(s0)
    27f6:	6168                	flw	fa0,68(a0)
    27f8:	636f2073          	csrs	0x636,t5
    27fc:	72727563          	bgeu	tp,t2,2f26 <_data_lma+0x39e>
    2800:	6465                	lui	s0,0x19
    2802:	502e                	0x502e
    2804:	6f72                	flw	ft10,28(sp)
    2806:	6d617267          	0x6d617267
    280a:	6820                	flw	fs0,80(s0)
    280c:	7361                	lui	t1,0xffff8
    280e:	6220                	flw	fs0,64(a2)
    2810:	6565                	lui	a0,0x19
    2812:	206e                	fld	ft0,216(sp)
    2814:	6c62                	flw	fs8,24(sp)
    2816:	656b636f          	jal	t1,b8e6c <_data_lma+0xb62e4>
    281a:	2e64                	fld	fs1,216(a2)
    281c:	0000                	unimp
    281e:	0000                	unimp
    2820:	6f64                	flw	fs1,92(a4)
    2822:	6275                	lui	tp,0x1d
    2824:	656c                	flw	fa1,76(a0)
    2826:	e720                	fsw	fs0,72(a4)
    2828:	bbb1                	j	2584 <_sbrk_r+0x8>
    282a:	9ee5                	0x9ee5
    282c:	849ae78b          	0x849ae78b
    2830:	ade5                	j	2f28 <_data_lma+0x3a0>
    2832:	828ae897          	auipc	a7,0x828ae
    2836:	95e6                	add	a1,a1,s9
    2838:	e6b0                	fsw	fa2,72(a3)
    283a:	af98                	fsd	fa4,24(a5)
    283c:	2520                	fld	fs0,72(a0)
    283e:	2075                	jal	28ea <_read+0x14e>
    2840:	ade5                	j	2f38 <_data_lma+0x3b0>
    2842:	828ae897          	auipc	a7,0x828ae
    2846:	0a2e                	slli	s4,s4,0xb
    2848:	0000                	unimp
    284a:	0000                	unimp
    284c:	6e45                	lui	t3,0x11
    284e:	6574                	flw	fa3,76(a0)
    2850:	2072                	fld	ft0,280(sp)
    2852:	616d                	addi	sp,sp,240
    2854:	6e69                	lui	t3,0x1a
    2856:	6c20                	flw	fs0,88(s0)
    2858:	2e706f6f          	jal	t5,933e <_data_lma+0x67b6>
    285c:	0000                	unimp
    285e:	0000                	unimp
    2860:	0a0a                	slli	s4,s4,0x2
    2862:	9ce6                	add	s9,s9,s9
    2864:	afabe7ab          	0xafabe7ab
    2868:	87e9                	srai	a5,a5,0x1a
    286a:	869be987          	0x869be987
    286e:	92e5                	srli	a3,a3,0x39
    2870:	e58c                	fsw	fa1,8(a1)
    2872:	8688                	0x8688
    2874:	9ee6                	add	t4,t4,s9
    2876:	e890                	fsw	fa2,16(s1)
    2878:	beae                	fsd	fa1,376(sp)
    287a:	a4e5                	j	2b62 <__sf_fake_stdout+0x36>
    287c:	00000087          	0x87
    2880:	aee8                	fsd	fa0,216(a3)
    2882:	e5be                	fsw	fa5,200(sp)
    2884:	87a4                	0x87a4
    2886:	88e5                	andi	s1,s1,25
    2888:	e59d                	bnez	a1,28b6 <_read+0x11a>
    288a:	8ce58ba7          	0x8ce58ba7
    288e:	e296                	fsw	ft5,68(sp)
    2890:	a680                	fsd	fs0,8(a3)
    2892:	80e2                	mv	ra,s8
    2894:	00a6                	slli	ra,ra,0x9
    2896:	0000                	unimp
    2898:	3030                	fld	fa2,96(s0)
    289a:	303a                	fld	ft0,424(sp)
    289c:	3a38                	fld	fa4,112(a2)
    289e:	3532                	fld	fa0,296(sp)
    28a0:	0000                	unimp
    28a2:	0000                	unimp
    28a4:	754a                	flw	fa0,176(sp)
    28a6:	206e                	fld	ft0,216(sp)
    28a8:	3732                	fld	fa4,296(sp)
    28aa:	3220                	fld	fs0,96(a2)
    28ac:	3230                	fld	fa2,96(a2)
    28ae:	0034                	addi	a3,sp,8
    28b0:	9be5                	andi	a5,a5,-7
    28b2:	e4ba                	fsw	fa4,72(sp)
    28b4:	89e7b6bb          	0x89e7b6bb
    28b8:	e688                	fsw	fa0,8(a3)
    28ba:	ac9c                	fsd	fa5,24(s1)
    28bc:	569abcef          	jal	s9,ae624 <_data_lma+0xaba9c>
    28c0:	3025                	jal	20e8 <_vfiprintf_r+0x222>
    28c2:	7834                	flw	fa3,112(s0)
    28c4:	e78cbcef          	jal	s9,fffcdf3c <_eusrstack+0xdffadf3c>
    28c8:	96bc                	0x96bc
    28ca:	afe8                	fsd	fa0,216(a5)
    28cc:	e691                	bnez	a3,28d8 <_read+0x13c>
    28ce:	9ce6a597          	auipc	a1,0x9ce6a
    28d2:	ef9f 9abc 7325      	0x73259abcef9f
    28d8:	252c                	fld	fa1,72(a0)
    28da:	a680e273          	csrrsi	tp,0xa68,1
    28de:	80e2                	mv	ra,s8
    28e0:	0aa6                	slli	s5,s5,0x9
    28e2:	0000                	unimp
    28e4:	b8e4                	fsd	fs1,240(s1)
    28e6:	a78ee6bb          	0xa78ee6bb
    28ea:	9ee5                	0x9ee5
    28ec:	b78fe58b          	0xb78fe58b
    28f0:	439abcef          	jal	s9,ae528 <_data_lma+0xab9a0>
    28f4:	3348                	fld	fa0,160(a4)
    28f6:	5632                	lw	a2,44(sp)
    28f8:	56373033          	0x56373033
    28fc:	2e365443          	fmadd.q	fs0,fa2,ft3,ft5,unknown
    2900:	0000                	unimp
    2902:	0000                	unimp
    2904:	86e5                	srai	a3,a3,0x19
    2906:	e685                	bnez	a3,292e <_read+0x192>
    2908:	b8a0                	fsd	fs0,112(s1)
    290a:	9ee5                	0x9ee5
    290c:	b78fe58b          	0xb78fe58b
    2910:	259abcef          	jal	s9,ae368 <_data_lma+0xab7e0>
    2914:	25632563          	0x25632563
    2918:	63252d63          	0x63252d63
    291c:	6425                	lui	s0,0x9
    291e:	6325                	lui	t1,0x9
    2920:	0a2e                	slli	s4,s4,0xb
    2922:	0000                	unimp
    2924:	86e5                	srai	a3,a3,0x19
    2926:	e685                	bnez	a3,294e <_read+0x1b2>
    2928:	b8a0                	fsd	fs0,112(s1)
    292a:	e5b989e7          	jalr	s3,-421(s3)
    292e:	81be                	mv	gp,a5
    2930:	2020                	fld	fs0,64(s0)
    2932:	bde4                	fsd	fs1,248(a1)
    2934:	e58d                	bnez	a1,295e <_read+0x1c2>
    2936:	bdae                	fsd	fa1,248(sp)
    2938:	259abcef          	jal	s9,ae390 <_data_lma+0xab808>
    293c:	2064                	fld	fs1,192(s0)
    293e:	bde4                	fsd	fs1,248(a1)
    2940:	2c8d                	jal	2bb2 <_data_lma+0x2a>
    2942:	94e6                	add	s1,s1,s9
    2944:	818ce6af          	0x818ce6af
    2948:	8ce6                	mv	s9,s9
    294a:	a4bbe487          	0xa4bbe487
    294e:	9be9                	andi	a5,a5,-6
    2950:	ef86                	fsw	ft1,220(sp)
    2952:	9abc                	0x9abc
    2954:	0000                	unimp
    2956:	0000                	unimp
    2958:	6325                	lui	t1,0x9
    295a:	0020                	addi	s0,sp,8
    295c:	ade5                	j	3054 <_data_lma+0x4cc>
    295e:	e598                	fsw	fa4,8(a1)
    2960:	a882                	fsd	ft0,80(sp)
    2962:	85e9                	srai	a1,a1,0x1a
    2964:	e78d                	bnez	a5,298e <_read+0x1f2>
    2966:	aebd                	j	2ce4 <_data_lma+0x15c>
    2968:	529abcef          	jal	s9,ae690 <_data_lma+0xabb08>
    296c:	4d41                	li	s10,16
    296e:	253a                	fld	fa0,392(sp)
    2970:	2064                	fld	fs1,192(s0)
    2972:	462c424b          	fnmsub.q	ft4,fs8,ft2,fs0,rmm
    2976:	414c                	lw	a1,4(a0)
    2978:	253a4853          	0x253a4853
    297c:	2064                	fld	fs1,192(s0)
    297e:	e52c424b          	0xe52c424b
    2982:	b685                	j	24e2 <_printf_i+0x28a>
    2984:	b8e4                	fsd	fs1,240(s1)
    2986:	e9ad                	bnez	a1,29f8 <_read+0x25c>
    2988:	ade7b69b          	0xade7b69b
    298c:	e589                	bnez	a1,2996 <_read+0x1fa>
    298e:	85be                	mv	a1,a5
    2990:	83e9                	srli	a5,a5,0x1a
    2992:	e5a8                	fsw	fa0,72(a1)
    2994:	8688                	0x8688
    2996:	a4e5                	j	2c7e <_data_lma+0xf6>
    2998:	8fb0e5a7          	0x8fb0e5a7
    299c:	259abcef          	jal	s9,ae3f4 <_data_lma+0xab86c>
    29a0:	2064                	fld	fs1,192(s0)
    29a2:	0a2e424b          	fnmsub.d	ft4,ft8,ft2,ft1,rmm
    29a6:	0000                	unimp
    29a8:	bde5                	j	28a0 <_read+0x104>
    29aa:	8d89e593          	ori	a1,s3,-1832
    29ae:	b8e4                	fsd	fs1,240(s1)
    29b0:	91a2e9bb          	0x91a2e9bb
    29b4:	253a                	fld	fa0,392(sp)
    29b6:	2064                	fld	fs1,192(s0)
    29b8:	484d                	li	a6,19
    29ba:	2e7a                	fld	ft8,408(sp)
    29bc:	000a                	c.slli	zero,0x2
    29be:	0000                	unimp
    29c0:	86e5                	srai	a3,a3,0x19
    29c2:	e685                	bnez	a3,29ea <_read+0x24e>
    29c4:	b8a0                	fsd	fs0,112(s1)
    29c6:	a2e9                	j	2b90 <_data_lma+0x8>
    29c8:	e791                	bnez	a5,29d4 <_read+0x238>
    29ca:	878e                	mv	a5,gp
    29cc:	253a                	fld	fa0,392(sp)
    29ce:	2064                	fld	fs1,192(s0)
    29d0:	484d                	li	a6,19
    29d2:	2e7a                	fld	ft8,408(sp)
    29d4:	000a                	c.slli	zero,0x2
    29d6:	0000                	unimp
    29d8:	a4e5                	j	2cc0 <_data_lma+0x138>
    29da:	e896                	fsw	ft5,80(sp)
    29dc:	beae                	fsd	fa1,376(sp)
    29de:	80e6                	mv	ra,s9
    29e0:	bfbae7bb          	0xbfbae7bb
    29e4:	3a31                	jal	2300 <_printf_i+0xa8>
    29e6:	6425                	lui	s0,0x9
    29e8:	4d20                	lw	s0,88(a0)
    29ea:	7a48                	flw	fa0,52(a2)
    29ec:	0a2e                	slli	s4,s4,0xb
    29ee:	0000                	unimp
    29f0:	a4e5                	j	2cd8 <_data_lma+0x150>
    29f2:	e896                	fsw	ft5,80(sp)
    29f4:	beae                	fsd	fa1,376(sp)
    29f6:	80e6                	mv	ra,s9
    29f8:	bfbae7bb          	0xbfbae7bb
    29fc:	3a32                	fld	fs4,296(sp)
    29fe:	6425                	lui	s0,0x9
    2a00:	4d20                	lw	s0,88(a0)
    2a02:	7a48                	flw	fa0,52(a2)
    2a04:	0a2e                	slli	s4,s4,0xb
    2a06:	0000                	unimp
    2a08:	4441                	li	s0,16
    2a0a:	91a2e943          	fmadd.s	fs2,ft5,fs10,fs2,unknown
    2a0e:	3a878ee7          	jalr	t4,936(a5) # 13a8 <self_check+0x136>
    2a12:	6425                	lui	s0,0x9
    2a14:	4d20                	lw	s0,88(a0)
    2a16:	7a48                	flw	fa0,52(a2)
    2a18:	0a2e                	slli	s4,s4,0xb
    2a1a:	0000                	unimp
    2a1c:	b8e4                	fsd	fs1,240(s1)
    2a1e:	e6ad                	bnez	a3,2a88 <_read+0x2ec>
    2a20:	ad96                	fsd	ft5,216(sp)
    2a22:	90e5                	srli	s1,s1,0x39
    2a24:	e991                	bnez	a1,2a38 <_read+0x29c>
    2a26:	a1e88f87          	0xa1e88f87
    2a2a:	e5a8                	fsw	fa0,72(a1)
    2a2c:	a89c                	fsd	fa5,16(s1)
    2a2e:	309abcef          	jal	s9,ae536 <_data_lma+0xab9ae>
    2a32:	2578                	fld	fa4,200(a0)
    2a34:	3830                	fld	fa2,112(s0)
    2a36:	2e78                	fld	fa4,216(a2)
    2a38:	000a                	c.slli	zero,0x2
    2a3a:	0000                	unimp
    2a3c:	616d                	addi	sp,sp,240
    2a3e:	6e69                	lui	t3,0x1a
    2a40:	87e5                	srai	a5,a5,0x19
    2a42:	e6bd                	bnez	a3,2ab0 <_read+0x314>
    2a44:	b095                	j	22a8 <_printf_i+0x50>
    2a46:	9ce5                	0x9ce5
    2a48:	efa8                	fsw	fa0,88(a5)
    2a4a:	9abc                	0x9abc
    2a4c:	7830                	flw	fa2,112(s0)
    2a4e:	3025                	jal	2276 <_printf_i+0x1e>
    2a50:	7838                	flw	fa4,112(s0)
    2a52:	0a2e                	slli	s4,s4,0xb
    2a54:	0000                	unimp
    2a56:	0000                	unimp
    2a58:	9be5                	andi	a5,a5,-7
    2a5a:	e4ba                	fsw	fa4,72(sp)
    2a5c:	bce5b6bb          	0xbce5b6bb
    2a60:	e580                	fsw	fs0,8(a1)
    2a62:	bfe88ba7          	0xbfe88ba7
    2a66:	e890                	fsw	fa2,16(s1)
    2a68:	8ca1                	xor	s1,s1,s0
    2a6a:	e58cbcef          	jal	s9,fffce0c2 <_eusrstack+0xdffae0c2>
    2a6e:	9a88                	0x9a88
    2a70:	8fe5                	and	a5,a5,s1
    2a72:	e791                	bnez	a5,2a7e <_read+0x2e2>
    2a74:	9f94                	0x9f94
    2a76:	0000                	unimp
    2a78:	bde4                	fsd	fs1,248(a1)
    2a7a:	e58e                	fsw	ft3,200(sp)
    2a7c:	9f8a                	add	t6,t6,sp
    2a7e:	80e8                	0x80e8
    2a80:	8da4e597          	auipc	a1,0x8da4e
    2a84:	bde4                	fsd	fs1,248(a1)
    2a86:	208d                	jal	2ae8 <_read+0x34c>
    2a88:	0000                	unimp
    2a8a:	0000                	unimp
    2a8c:	e597aae7          	0xe597aae7
    2a90:	bce5a38f          	0xbce5a38f
    2a94:	e980                	fsw	fs0,16(a1)
    2a96:	8be7a897          	auipc	a7,0x8be7a
    2a9a:	8da4e597          	auipc	a1,0x8da4e
    2a9e:	bde4                	fsd	fs1,248(a1)
    2aa0:	208d                	jal	2b02 <__sf_fake_stderr+0x16>
    2aa2:	0000                	unimp
    2aa4:	e7ac8be7          	jalr	s7,-390(s9)
    2aa8:	bce58bab          	0xbce58bab
    2aac:	e980                	fsw	fs0,16(a1)
    2aae:	8be7a897          	auipc	a7,0x8be7a
    2ab2:	8da4e597          	auipc	a1,0x8da4e
    2ab6:	bde4                	fsd	fs1,248(a1)
    2ab8:	208d                	jal	2b1a <__sf_fake_stdin+0xe>
    2aba:	0000                	unimp
    2abc:	bde8                	fsd	fa0,248(a1)
    2abe:	b6bbe4af          	0xb6bbe4af
    2ac2:	a4e5                	j	2daa <_data_lma+0x222>
    2ac4:	e48d                	bnez	s1,2aee <__sf_fake_stderr+0x2>
    2ac6:	8dbd                	xor	a1,a1,a5
    2ac8:	0020                	addi	s0,sp,8
    2aca:	0000                	unimp
    2acc:	8ee6                	mv	t4,s9
    2ace:	e789                	bnez	a5,2ad8 <_read+0x33c>
    2ad0:	b594                	fsd	fa3,40(a1)
    2ad2:	a4e5                	j	2dba <_data_lma+0x232>
    2ad4:	e48d                	bnez	s1,2afe <__sf_fake_stderr+0x12>
    2ad6:	8dbd                	xor	a1,a1,a5
    2ad8:	0020                	addi	s0,sp,8
    2ada:	0000                	unimp
    2adc:	89e6                	mv	s3,s9
    2ade:	a88ae58b          	0xa88ae58b
    2ae2:	a4e5                	j	2dca <_data_lma+0x242>
    2ae4:	e48d                	bnez	s1,2b0e <__sf_fake_stdin+0x2>
    2ae6:	8dbd                	xor	a1,a1,a5
    2ae8:	0020                	addi	s0,sp,8
	...

00002aec <__sf_fake_stderr>:
	...

00002b0c <__sf_fake_stdin>:
	...

00002b2c <__sf_fake_stdout>:
	...
    2b4c:	2d23 2b30 0020 0000 6c68 004c 6665 4567     #-0+ ...hlL.efgE
    2b5c:	4746 0000 3130 3332 3534 3736 3938 4241     FG..0123456789AB
    2b6c:	4443 4645 0000 0000 3130 3332 3534 3736     CDEF....01234567
    2b7c:	3938 6261 6463 6665 0000 0000               89abcdef....
